ARM GAS  1.s 			page 1


   1              		@@ 单片机PY32F002AF15P6TU
   2              		@电池內阻测试仪
   3              		@时间：2023-07-29
   4              		@编译器：ARM-NONE-EABI
   5              		.thumb
   6              		.syntax unified
   7              		.section .text
   8              	vectors:	
   9 0000 60010020 		.word STACKINIT
  10 0004 C1010000 		.word _start + 1
  11 0008 78563412 	        .int 0x12345678	@f_chuchang_r,                
  12 000c 78563412 		.int 0x12345678	@f_chuchang_i,               
  13 0010 78563412 		.int 0x12345678	@f_jiaodu_r,                 
  14 0014 78563412 		.int 0x12345678	@f_jiaodu_i,                 
  15 0018 78563412 		.int 0x12345678	@f_r,                        
  16 001c 78563412 		.int 0x12345678	@f_mr,                     
  17 0020 00000000 		.word 0
  18 0024 00000000 		.word 0
  19 0028 00000000 		.word 0
  20 002c 25150000 		.word _svc_handler +1
  21 0030 00000000 		.word 0
  22 0034 00000000 		.word 0
  23 0038 27150000 		.word _pendsv_handler +1
  24 003c 29150000 		.word _systickzhongduan +1           @ 15
  25 0040 81150000 		.word aaa +1     @ _wwdg +1          @ 0
  26 0044 81150000 		.word aaa +1     @_pvd +1            @ 1
  27 0048 81150000 		.word aaa +1     @_rtc +1            @ 2
  28 004c 81150000 		.word aaa +1     @_flash +1          @ 3
  29 0050 81150000 		.word aaa +1    @ _rcc + 1           @ 4
  30 0054 81150000 		.word aaa +1      @_exti0_1  +1      @ 5
  31 0058 81150000 		.word aaa +1      @ _exti2_3 +1      @ 6
  32 005c 81150000 		.word aaa +1       @_exti4_15 +1     @ 7
  33 0060 81150000 		.word aaa +1                         @ 8
  34 0064 81150000 		.word aaa +1    @__dma_wan  +1       @ 9
  35 0068 81150000 		.word aaa +1    @_dma1_2_3 +1        @ 10
  36 006c 81150000 		.word aaa +1       @_dma1_4_5 +1     @ 11
  37 0070 81150000 		.word aaa +1     @_adc1 +1           @ 12
  38 0074 81150000 		.word aaa +1       @_tim1_brk_up +1  @ 13
  39 0078 81150000 		.word aaa +1        @ _tim1_cc +1    @ 14
  40 007c 81150000 		.word aaa +1         @_tim2 +1       @ 15
  41 0080 81150000 		.word aaa +1          @_tim3 +1      @ 16
  42 0084 81150000 		.word aaa +1     @LPTIM1               @ 17
  43 0088 81150000 		.word aaa +1                         @ 18
  44 008c 81150000 		.word aaa +1    @_tim14 +1           @ 19
  45 0090 81150000 		.word aaa +1                         @ 20
  46 0094 81150000 		.word aaa +1         @_tim16 +1      @ 21
  47 0098 81150000 		.word aaa +1         @_tim17 +1      @ 22
  48 009c 81150000 		.word aaa +1          @_i2c   +1     @ 23
  49 00a0 81150000 		.word aaa +1                         @ 24
  50 00a4 81150000 		.word aaa +1           @_spi1  +1    @ 25
  51 00a8 81150000 		.word aaa +1           @_spi2  +1    @ 26
  52 00ac 81150000 		.word aaa +1         @_usart1 +1     @ 27
  53 00b0 81150000 		.word aaa +1	@_usart2 +1	     @ 28
  54 00b4 81150000 		.word aaa +1				@29
  55 00b8 81150000 		.word aaa +1	@led			@30
  56 00bc 81150000 		.word aaa +1				@31
  57 00c0 00000000 		.word 0
ARM GAS  1.s 			page 2


  58 00c4 00000000 		.word 0
  59 00c8 00000000 		.word 0
  60 00cc 00000000 		.word 0
  61 00d0 00000000 	        .word 0
  62 00d4 00000000 		.word 0
  63 00d8 00000000 		.word 0
  64 00dc 00000000 		.word 0
  65 00e0 00000000 		.word 0
  66 00e4 00000000 		.word 0
  67 00e8 00000000 		.word 0
  68 00ec 00000000 		.word 0
  69 00f0 00000000 		.word 0
  70 00f4 00000000 		.word 0
  71 00f8 00000000 		.word 0
  72 00fc 00000000 		.word 0
  73              	xiang_liang_biao:
  74 0100 60010020 		.word STACKINIT
  75 0104 C1010000 		.word _start + 1
  76 0108 21150000 		.word _nmi_handler + 1
  77 010c 23150000 		.word _hard_fault  + 1
  78 0110 00000000 		.word 0
  79 0114 00000000 		.word 0
  80 0118 00000000 		.word 0
  81 011c 00000000 		.word 0
  82 0120 00000000 		.word 0
  83 0124 00000000 		.word 0
  84 0128 00000000 		.word 0
  85 012c 25150000 		.word _svc_handler +1
  86 0130 00000000 		.word 0
  87 0134 00000000 		.word 0
  88 0138 27150000 		.word _pendsv_handler +1
  89 013c 29150000 		.word _systickzhongduan +1           @ 15
  90 0140 81150000 		.word aaa +1     @ _wwdg +1          @ 0
  91 0144 81150000 		.word aaa +1     @_pvd +1            @ 1
  92 0148 81150000 		.word aaa +1     @_rtc +1            @ 2
  93 014c 81150000 		.word aaa +1     @_flash +1          @ 3
  94 0150 81150000 		.word aaa +1    @ _rcc + 1           @ 4
  95 0154 81150000 		.word aaa +1      @_exti0_1  +1      @ 5
  96 0158 81150000 		.word aaa +1      @ _exti2_3 +1      @ 6
  97 015c 81150000 		.word aaa +1       @_exti4_15 +1     @ 7
  98 0160 81150000 		.word aaa +1                         @ 8
  99 0164 81150000 		.word aaa +1    @__dma_wan  +1       @ 9
 100 0168 81150000 		.word aaa +1    @_dma1_2_3 +1        @ 10
 101 016c 81150000 		.word aaa +1       @_dma1_4_5 +1     @ 11
 102 0170 81150000 		.word aaa +1     @_adc1 +1           @ 12
 103 0174 81150000 		.word aaa +1       @_tim1_brk_up +1  @ 13
 104 0178 81150000 		.word aaa +1        @ _tim1_cc +1    @ 14
 105 017c 81150000 		.word aaa +1         @_tim2 +1       @ 15
 106 0180 81150000 		.word aaa +1          @_tim3 +1      @ 16
 107 0184 81150000 		.word aaa +1     @LPTIM1               @ 17
 108 0188 81150000 		.word aaa +1                         @ 18
 109 018c 81150000 		.word aaa +1    @_tim14 +1           @ 19
 110 0190 81150000 		.word aaa +1                         @ 20
 111 0194 81150000 		.word aaa +1         @_tim16 +1      @ 21
 112 0198 81150000 		.word aaa +1         @_tim17 +1      @ 22
 113 019c 81150000 		.word aaa +1          @_i2c   +1     @ 23
 114 01a0 81150000 		.word aaa +1                         @ 24
ARM GAS  1.s 			page 3


 115 01a4 81150000 		.word aaa +1           @_spi1  +1    @ 25
 116 01a8 81150000 		.word aaa +1           @_spi2  +1    @ 26
 117 01ac 81150000 		.word aaa +1         @_usart1 +1     @ 27
 118 01b0 81150000 		.word aaa +1    @_usart2 +1          @ 28
 119 01b4 81150000 		.word aaa +1                            @29
 120 01b8 81150000 		.word aaa +1    @led                    @30
 121 01bc 81150000 		.word aaa +1                            @31
 122              		
 123              	
 124              	_start:
 125              	@	bkpt # 0
 126 01c0 4D48     		ldr r0, = 0xe000ed08
 127 01c2 4E49     		ldr r1, = xiang_liang_biao
 128 01c4 0160     		str r1, [r0]	
 129              	@@@@@@@@@@@@@@@@@@@@@@@@@@@@@@@@@@@@@@@@@@
 130              	
 131              		
 132              	shizhong:
 133 01c6 4E4A     		ldr r2, = 0x40022000   @FLASH访问控制
 134 01c8 0121     		movs r1, # 1
 135 01ca 1160     		str r1, [r2]          @0:flash没等待，1:flash等待
 136 01cc 4D48     		ldr r0, = 0x40021000 @ rcc
 137 01ce 4E49     		ldr r1, = 0x20008
 138 01d0 0161     		str r1, [r0, # 0x10]	@外部晶振选择
 139 01d2 0168     		ldr r1, [r0]
 140 01d4 4D4A     		ldr r2, = 0x10000
 141 01d6 1143     		orrs r1, r1, r2
 142 01d8 0160     		str r1, [r0]		@开外部振荡器
 143              	denghse:
 144 01da 0168     		ldr r1, [r0]
 145 01dc 8903     		lsls r1, r1, # 14
 146 01de FCD5     		bpl denghse		@等外部振荡器
 147              		
 148 01e0 4B49     		ldr r1, = 0x01
 149 01e2 C160     		str r1, [r0, # 0x0c]	@PLL配置
 150 01e4 0268     		ldr r2, [r0]
 151 01e6 4B49     		ldr r1, = 0x1000000
 152 01e8 1143     		orrs r1, r1, r2
 153 01ea 0160     		str r1, [r0]		@开PLL
 154              	
 155              	dengpll:
 156 01ec 0168     		ldr r1, [r0]
 157 01ee 8901     		lsls r1, # 6
 158 01f0 FCD5     		bpl dengpll		@等PLL
 159 01f2 0221     		movs r1, # 0x02
 160 01f4 8160     		str r1, [r0, # 0x08]	@选择系统时钟
 161              		
 162              	_neicunqingling:
 163 01f6 4848     		ldr r0, = 0x20001000
 164 01f8 484A     		ldr r2, = 0x20000000
 165 01fa 0021     		movs r1, # 0
 166              	_neicunqinglingxunhuan:
 167 01fc 0438     		subs r0, r0, # 4
 168 01fe 0160     		str r1, [r0]
 169 0200 9042     		cmp r0, r2
 170 0202 FBD1     		bne _neicunqinglingxunhuan
 171              		
ARM GAS  1.s 			page 4


 172              	__wai_she_shi_zhong:
 173              		@0x34
 174              		@0=PA、1=PB、5=PF
 175 0204 3F48     		ldr r0, = 0x40021000
 176 0206 2321     		movs r1, # 0x23
 177 0208 4163     		str r1, [r0, # 0x34]	@IO时钟
 178              		
 179              		@0X38 复位值0x300
 180              		@0=DMA，8=FLASH，12=CRC
 181 020a 4549     		ldr r1, = 0x301
 182 020c 8163     		str r1, [r0, # 0x38]
 183              	
 184              		@0X3C
 185              		@1=TIM3,10=RTC，11=WWDG，14=SPI2,17=USART2,21=I2C，28=PWR，31=LPTIM
 186 020e 0221     		movs r1, # 0x02
 187 0210 C163     		str r1, [r0, # 0x3c]
 188              		@0X40
 189              		@0SYSCFG，11=TIM1,12=SPI1,14=USART1,15=TIM14,17=TIM16,18=TIM17,20=ADC
 190              		@21=COMP1,22=COMP2,23=LED
 191 0212 4449     		ldr r1, = 0x101801
 192 0214 0164     		str r1, [r0, # 0x40]   
 193 0216 0163     		str r1, [r0, # 0x30]
 194 0218 0021     		movs r1, # 0
 195 021a 0163     		str r1, [r0, # 0x30]
 196              			
 197              	__io_she_zhi:
 198              	@@@@@@@@@@@@@@@@@@@@@@@@@@@@@@@@@@@@@@@@@@@@@@@@@@@@@@@@@@@@@@@@@@@@@@@@@@@@@@@@@@@@@@@	
 199              		@pa=0x50000000,pb=0x50000400,pf=0x50001400
 200              		@0xebffffff	0xffffffff	0xfffffcff
 201              		@00=输入，01=通用输出，10=复用，11=模拟
 202              		@0x04, 0=推挽，1=开漏
 203              		@0x08, 00=非常低，01=低速，10=高速，11=非常高
 204              		@PA=0X0C000000
 205              		@0x0c, 00=无上拉下拉，01=上拉，10=下拉
 206              		@PA=0X24000000,PB=0，PF=0X200
 207              		@0x10=输入数据寄存器
 208              		@0x14=输出数据寄存器
 209              		@0X18，0-15 IO开，16-31 IO关
 210              		@0X28, 0-15 IO关
 211              		@0x20=复用功能低
 212              		@0x24=复用功能高
 213              		@0=AF0, 1=AF1，2=AF2，3=AF3，4=AF4, 5=AF5, 6=AF6, 7=AF7
 214              		@8=AF8, 9=AF9, A=AF10,B=AF11,C=AF12,D=AF13,E=AF14,F=AF15
 215              	@@@@@@@@@@@@@@@@@@@@@@@@@@@@@@@@@@@@@@@@@@@@@@@@@@@@@@@@@@@@@@@@@@@@@@@@@@@@@@@@@@@@
 216 021c 4248     		ldr r0, = 0x50000000
 217 021e 4349     		ldr r1, = 0x2800890f
 218 0220 0160     		str r1, [r0]
 219 0222 0C21     		movs r1, # 0x0c
 220 0224 4160     		str r1, [r0, # 0x04]
 221 0226 4249     		ldr r1, = 0x0c000050
 222 0228 C160     		str r1, [r0, # 0x0c]
 223 022a 4249     		ldr r1, = 0x0c000000
 224 022c 8160     		str r1, [r0, # 0x08]
 225 022e 4248     		ldr r0, = 0x50000400
 226 0230 4249     		ldr r1, = 0xffffffbd
 227 0232 0160     		str r1, [r0]
 228 0234 C021     		movs r1, # 0xc0
ARM GAS  1.s 			page 5


 229 0236 8160     		str r1, [r0, # 0x08]
 230 0238 4149     		ldr r1, = 0x1000
 231 023a 0162     		str r1, [r0, # 0x20]
 232              	
 233              	
 234              	@	movs r1, # 0x01
 235              	@	str r1, [r0, # 0x018]
 236              		
 237              	
 238              	spi_chushihua:
 239 023c 4148     		ldr r0, = 0x40013000
 240 023e 4249     		ldr r1, = 0xf00
 241 0240 4160     		str r1, [r0, # 0x04]
 242 0242 4249     		ldr r1, = 0xc07c
 243 0244 0160     		str r1, [r0]
 244              	
 245              	__adc_dma:
 246 0246 4248     		ldr r0, = 0x40020000
 247 0248 4249     		ldr r1, = 0x40012440    @外设地址
 248 024a 0161     		str r1, [r0, # 0x10]
 249 024c 4249     		ldr r1, = 0x20000160    @储存器地址
 250 024e 4161     		str r1, [r0, # 0x14]
 251 0250 4249     		ldr r1, = 1000          @传输数量
 252 0252 C160     		str r1, [r0, # 0x0c]
 253 0254 4249     		ldr r1, = 0x35a1 @  0x583        @ 5a1  @传输模式
 254 0256 8160     		str r1, [r0, # 0x08]
 255              	
 256              	_adcchushihua:
 257 0258 4248     		ldr r0, = 0x40012400  @ adc基地址
 258 025a 4349     		ldr r1, = 0x80000000
 259 025c 8160     		str r1, [r0, # 0x08]  @ ADC 控制寄存器 (ADC_CR)  @adc校准
 260              	_dengadcjiaozhun:
 261 025e 8168     		ldr r1, [r0, # 0x08]
 262 0260 0900     		movs r1, r1
 263 0262 FCD4     		bmi _dengadcjiaozhun   @ 等ADC校准
 264              	_tongdaoxuanze:
 265 0264 2D49     		ldr r1, = 0x20000000
 266 0266 0161     		str r1, [r0, # 0x10]    @时钟分频
 267 0268 0321     		movs r1, # 0x03
 268 026a 8162     		str r1, [r0, # 0x28]    @ 通道选择寄存器 (ADC_CHSELR)
 269 026c 3F49     		ldr r1, = 0x8c3         @0x3003         @连续0x2003 @触发0x8c3 @ 0xc43         @TIM3 0x8c3 @0x
 270 026e C160     		str r1, [r0, # 0x0c]    @ 配置寄存器 1 (ADC_CFGR1)
 271 0270 0021     		movs r1, # 0
 272 0272 4161     		str r1, [r0, # 0x14]    @ ADC 采样时间寄存器 (ADC_SMPR)
 273 0274 3E49     		ldr r1, = 0x05         @ 开始转换
 274 0276 8160     		str r1, [r0, # 0x08]    @ 控制寄存器 (ADC_CR)
 275 0278 8160     		str r1, [r0, # 0x08]
 276              		
 277              		@__tim1_dma:
 278              		@       ldr r0, = 0x40010000
 279              		@       ldr r1, = 0x1000
 280              		@       str r1, [r0, # 0x1c]
 281              		@
 282              		@       ldr r0, = 0x40020000
 283              		@       ldr r1, = 0x40012c38    @外设地址
 284              		@       str r1, [r0, # 0x24]
 285              		@       ldr r1, =  zheng_xian_1khz @ 储存器地址
ARM GAS  1.s 			page 6


 286              		@       str r1, [r0, # 0x28]
 287              		@       ldr r1, = 200           @传输数量
 288              		@       str r1, [r0, # 0x20]
 289              		@       ldr r1, = 0x31b1        @传输模式
 290              		@       str r1, [r0, # 0x1c]
 291              		@
 292              		@tim3chushihua:
 293 027a 3E4B     		ldr r3, = 0x40000400 @ tim3_cr1
 294 027c 3E4A     		ldr r2, = 0
 295 027e 9A62     		str r2, [r3, # 0x28] @ psc
 296 0280 3E4A     		ldr r2, = 959
 297 0282 DA62     		str r2, [r3, # 0x2c] @ ARR
 298 0284 2022     		movs r2, # 0x20
 299 0286 5A60     		str r2, [r3, # 0x04] @ TRGO
 300              	
 301              		@tim1chushiha:
 302 0288 3D48     		ldr r0, = 0x40012c00 @ tim1_cr1
 303 028a 0021     		movs r1, # 0
 304 028c 8162     		str r1, [r0, # 0x28] @ psc
 305 028e 3D49     		ldr r1, = 47999
 306 0290 C162     		str r1, [r0, # 0x2c] @ ARR
 307              		@       movs r1, # 0x20
 308              		@       str r1, [r0, # 0x04] @ TRGO
 309 0292 3D49     		ldr r1, = 0x6800
 310 0294 8161     		str r1, [r0, # 0x18] @ ccmr1  CC2
 311 0296 3D49     		ldr r1, = 0x10    @  CC2
 312 0298 0162     		str r1, [r0, # 0x20] @ ccer
 313 029a 3D49     		ldr r1, = 0x8000
 314 029c 4164     		str r1, [r0, # 0x44] @ BDTR
 315              		@       ldr r1, = 0x100 @ CC2 DMA
 316              		@       str r1, [r0, # 0x0c] @ DIER
 317 029e 3D49     		ldr r1, = 24000
 318 02a0 8163     		str r1, [r0, # 0x38]
 319 02a2 3D49     		ldr r1, = 0x81
 320 02a4 0160     		str r1, [r0]
 321 02a6 1960     		str r1, [r3]
 322 02a8 3C4C     		ldr r4, = 0xe000e010
 323 02aa 3D4B     		ldr r3, = 479999
 324 02ac 6360     		str r3, [r4, # 4]
 325 02ae A360     		str r3, [r4, # 8]
 326 02b0 0723     		movs r3, # 0x07
 327 02b2 2360     		str r3, [r4]    @systick 开
 328              	
 329 02b4 3B48     		ldr r0, = lvbo_changdu
 330 02b6 3C49     		ldr r1, = lvbo_youyi
 331 02b8 C822     		movs r2, # 200
 332 02ba 0260     		str r2, [r0]
 333 02bc 0E22     		movs r2, # 14
 334 02be 0A60     		str r2, [r1]
 335              	
 336 02c0 3A48     		ldr r0, = cossin
 337 02c2 3B49     		ldr r1, = cos_sin_biao_1k
 338 02c4 0160     		str r1, [r0]
 339              	
 340              	
 341              	__huifu_chuchang:	
 342 02c6 3B48     		ldr r0, = 0x8000008
ARM GAS  1.s 			page 7


 343 02c8 0168     		ldr r1, [r0]
 344 02ca 3B4A     		ldr r2, = 0x12345678
 345 02cc 8A42     		cmp r2, r1
 346 02ce 11D1     		bne __tiaoguo_chuchang_chushihua
 347 02d0 3A48     		ldr r0, = chuchang_dianzu
 348 02d2 0168     		ldr r1, [r0]
 349 02d4 4268     		ldr r2, [r0, # 0x04]
 350 02d6 8368     		ldr r3, [r0, # 0x08]
 351 02d8 C468     		ldr r4, [r0, # 0x0c]
 352 02da 0569     		ldr r5, [r0, # 0x10]
 353 02dc 4669     		ldr r6, [r0, # 0x14]
 354 02de 8769     		ldr r7, [r0, # 0x18]
 355 02e0 3748     		ldr r0, = chuchang_r
 356 02e2 0160     		str r1, [r0]
 357 02e4 4260     		str r2, [r0, # 0x04]
 358 02e6 8360     		str r3, [r0, # 0x08]
 359 02e8 C460     		str r4, [r0, # 0x0c]
 360 02ea 0561     		str r5, [r0, # 0x10]
 361 02ec 4661     		str r6, [r0, # 0x14]
 362 02ee 8761     		str r7, [r0, # 0x18]
 363 02f0 00F023FA 		bl __xie_flash
 364              	__tiaoguo_chuchang_chushihua:
 365              		
 366              	
 367              	
 368              		
 369              	
 370              	__anjian0:
 371 02f4 DEE1     		b ting
 372 02f6 000008ED 		.ltorg
 372      00E00001 
 372      00000020 
 372      02400010 
 372      02400800 
 373              	__anjian1:
 374              	__dangwei_jia_deng_songshou:
 375 03c4 00F067FB 		bl __an_jian
 376 03c8 0328     		cmp r0, # 3
 377 03ca 2BD0     		beq __anjian3
 378 03cc 0028     		cmp r0, # 0
 379 03ce 08D0     		beq __dangwei_jia_le
 380 03d0 00F054FA 		bl __xiangwei_xuanzhuan
 381 03d4 0748     		ldr r0, = z_r
 382 03d6 0068     		ldr r0, [r0]
 383 03d8 0749     	        ldr r1, = f_r
 384 03da 084A     		ldr r2, = f_chuchang_r
 385 03dc 00F033FB 		bl __xianshi_neizu
 386 03e0 F0E7     		b __dangwei_jia_deng_songshou
 387              	__dangwei_jia_le:
 388 03e2 0748     		ldr r0, = liangcheng
 389 03e4 0168     		ldr r1, [r0]
 390 03e6 0131     		adds r1, r1, # 1
 391 03e8 0160     		str r1, [r0]
 392 03ea 0229     		cmp r1, # 2
 393 03ec 01D1     		bne __anjian1_fanhui
 394 03ee 0021     		movs r1, # 0
 395 03f0 0160     		str r1, [r0]
ARM GAS  1.s 			page 8


 396              	
 397              	__anjian1_fanhui:
 398 03f2 59E1     		b __ren_wu_diao_du
 399 03f4 C00F0020 		.ltorg
 399      18000008 
 399      08000008 
 399      CC0F0020 
 400              		
 401              	__anjian2:
 402              	__xianshi_jiaodu:
 403 0404 B04A     		ldr r2, = jiaodu
 404 0406 B148     		ldr r0, = shangbi_r
 405 0408 B149     		ldr r1, = shangbi_i
 406 040a 0068     		ldr r0, [r0]
 407 040c 0968     		ldr r1, [r1]
 408 040e 00F0A2FA 		bl __atan2_ji_suan
 409 0412 C013     		asrs r0, r0, # 15
 410 0414 1060     		str r0, [r2]
 411              		
 412 0416 AF4A     		ldr r2, = qiwang_jiaodu
 413 0418 0221     		movs r1, # 2
 414 041a 01F019F8 		bl _zhuanshumaguanma
 415 041e 01F033F8 		bl _xieshumaguan
 416 0422 41E1     		b __ren_wu_diao_du
 417              		
 418              	__anjian3:
 419 0424 00F02BF8 		bl __xianshi_jiaozhun_caidan
 420 0428 00F035FB 	        bl __an_jian
 421 042c 0328     		cmp r0, # 3
 422 042e F9D0     		beq __anjian3
 423 0430 0028     		cmp r0, # 0
 424 0432 F7D1     		bne __anjian3
 425              	__anjian3_xunhuan:
 426 0434 00F023F8 	        bl __xianshi_jiaozhun_caidan
 427 0438 00F02DFB 		bl __an_jian
 428 043c 0128     		cmp r0, # 1
 429 043e 02D0     		beq __jiaozhun_caidan_jia_deng_songshou
 430 0440 0228     		cmp r0, # 2
 431 0442 27D0     		beq __jinru_jiaozhun_caidan_deng_songshou
 432 0444 F6E7     		b __anjian3_xunhuan	
 433              	__jiaozhun_caidan_jia_deng_songshou:
 434 0446 00F026FB 		bl __an_jian
 435 044a 0328     		cmp r0, # 3
 436 044c 0DD0     		beq __tiaochu_anjian3
 437 044e 0028     		cmp r0, # 0
 438 0450 02D0     		beq __jiaozhun_caidan_jia_le
 439 0452 00F014F8 		bl __xianshi_jiaozhun_caidan
 440 0456 F6E7     		b __jiaozhun_caidan_jia_deng_songshou
 441              	__jiaozhun_caidan_jia_le:
 442 0458 9F48     		ldr r0, = jiaozhun_bianhao
 443 045a 0168     		ldr r1, [r0]
 444 045c 0131     		adds r1, r1, # 1
 445 045e 0160     		str r1, [r0]
 446 0460 0329     		cmp r1, # 3
 447 0462 01D1     		bne __anjian3_fanhui
 448 0464 0021     		movs r1, # 0
 449 0466 0160     		str r1, [r0]
ARM GAS  1.s 			page 9


 450              	__anjian3_fanhui:	
 451 0468 E4E7     		b __anjian3_xunhuan
 452              	__tiaochu_anjian3:
 453 046a 9C4F     	        ldr r7, = 0x2fff
 454              	__yy1:
 455 046c 9C48     		ldr r0, = wan
 456 046e 9D49     		ldr r1, = shumaguanma
 457 0470 0068     		ldr r0, [r0]
 458 0472 0860     		str r0, [r1]
 459 0474 01F008F8 		bl _xieshumaguan
 460              	
 461 0478 013F     		subs r7, r7, # 1
 462 047a F7D1     		bne __yy1
 463 047c 1AE1     		b ting
 464              	__xianshi_jiaozhun_caidan:
 465 047e 07B5     		push {r0-r2,lr}
 466 0480 9848     		ldr r0, = shumaguanma
 467 0482 954A     		ldr r2, = jiaozhun_bianhao
 468 0484 9849     		ldr r1, = p0
 469 0486 1278     		ldrb r2, [r2]
 470 0488 9200     		lsls r2, r2, # 2
 471 048a 8958     		ldr r1, [r1, r2]
 472 048c 0160     		str r1, [r0]
 473 048e 00F0FBFF 		bl _xieshumaguan
 474 0492 07BD     		pop {r0-r2,pc}
 475              	
 476              	__jinru_jiaozhun_caidan_deng_songshou:
 477 0494 00F0FFFA 		bl __an_jian
 478 0498 0328     		cmp r0, # 3
 479 049a C3D0     		beq __anjian3
 480 049c 0028     		cmp r0, # 0
 481 049e 02D0     		beq __jinru_jiaozhun_caidan
 482 04a0 FFF7EDFF 		bl __xianshi_jiaozhun_caidan
 483 04a4 F6E7     		b __jinru_jiaozhun_caidan_deng_songshou
 484              		
 485              	__jinru_jiaozhun_caidan:
 486 04a6 8C48     		ldr r0, = jiaozhun_bianhao
 487 04a8 0068     		ldr r0, [r0]
 488 04aa 8000     		lsls r0, r0, # 2
 489 04ac 8F49     		ldr r1, = jiaozhun_biao
 490 04ae 0A58     		ldr r2, [r1, r0]
 491 04b0 9746     		mov pc, r2
 492              		
 493              	__qingling:
 494 04b2 00F031F9 		bl __du_jiaozhunbiao
 495 04b6 8E48     		ldr r0, = liangcheng
 496 04b8 0021     		movs r1, # 0
 497 04ba 0160     		str r1, [r0]
 498              	__duanlu_qingling:
 499 04bc 00F03DF8 		bl __duanlu_qingling_xianshi
 500 04c0 00F0E9FA 		bl __an_jian
 501 04c4 0128     		cmp r0, # 1
 502 04c6 02D0     		beq __qingling_jia
 503 04c8 0228     		cmp r0, # 2
 504 04ca 11D0     		beq __qingling_jian
 505 04cc F6E7     		b __duanlu_qingling
 506              	__qingling_jia:
ARM GAS  1.s 			page 10


 507 04ce 00F0E2FA 		bl __an_jian
 508 04d2 0328     		cmp r0, # 3
 509 04d4 1DD0     		beq __qingling_baocun
 510 04d6 0028     		cmp r0, # 0
 511 04d8 02D0     		beq __qingling_jiale
 512 04da 00F02EF8 		bl __duanlu_qingling_xianshi
 513 04de F6E7     		b __qingling_jia
 514              	__qingling_jiale:
 515 04e0 8348     		ldr r0, = liangcheng
 516 04e2 0068     		ldr r0, [r0]
 517 04e4 8000     		lsls r0, r0, # 2
 518 04e6 8349     		ldr r1, = r
 519 04e8 0A58     		ldr r2, [r1, r0]
 520 04ea 0132     		adds r2, r2, # 1
 521 04ec 0A50     		str r2, [r1, r0]
 522 04ee E5E7     		b __duanlu_qingling
 523              	__qingling_jian:
 524 04f0 00F0D1FA 		bl __an_jian
 525 04f4 0328     		cmp r0, # 3
 526 04f6 0CD0     		beq __qingling_baocun
 527 04f8 0028     		cmp r0, # 0
 528 04fa 02D0     		beq __qingling_jianle
 529 04fc 00F01DF8 		bl __duanlu_qingling_xianshi
 530 0500 F6E7     		b __qingling_jian
 531              	__qingling_jianle:
 532 0502 7B48     		ldr r0, = liangcheng
 533 0504 0068     		ldr r0, [r0]
 534 0506 8000     		lsls r0, r0, # 2
 535 0508 7A49     		ldr r1, = r
 536 050a 0A58     		ldr r2, [r1, r0]
 537 050c 013A     		subs r2, r2, # 1
 538 050e 0A50     		str r2, [r1, r0]
 539 0510 D4E7     		b __duanlu_qingling
 540              	
 541              	__qingling_baocun:
 542 0512 7748     		ldr r0, = liangcheng
 543 0514 0168     		ldr r1, [r0]
 544 0516 0131     		adds r1, r1, # 1
 545 0518 0160     		str r1, [r0]
 546 051a 0229     		cmp r1, # 2
 547 051c CED1     		bne __duanlu_qingling
 548              	__duanlu_qingling_wan:
 549 051e 0021     		movs r1, # 0
 550 0520 0160     		str r1, [r0]
 551              	
 552 0522 6E4F     		ldr r7, = 0x2fff
 553              	__yy:
 554 0524 6E48     		ldr r0, = wan
 555 0526 6F49     		ldr r1, = shumaguanma
 556 0528 0068     		ldr r0, [r0]
 557 052a 0860     		str r0, [r1]
 558 052c 00F0ACFF 		bl _xieshumaguan
 559              		
 560 0530 013F     		subs r7, r7, # 1
 561 0532 F7D1     		bne __yy
 562 0534 00F001F9 		bl __xie_flash
 563 0538 01BE     		bkpt # 1
ARM GAS  1.s 			page 11


 564              	
 565              	__duanlu_qingling_xianshi:
 566 053a 03B5     		push {r0-r1,lr}
 567 053c 00F09EF9 		bl __xiangwei_xuanzhuan
 568 0540 6D48     		ldr r0, = z_r
 569 0542 0068     		ldr r0, [r0]
 570 0544 6B49     		ldr r1, = r
 571 0546 6D4A     		ldr r2, = chuchang_r
 572 0548 00F07DFA 		bl __xianshi_neizu
 573 054c 03BD     		pop {r0-r1,pc}
 574              	
 575              	__xiangwei:
 576 054e 00F0E3F8 		bl __du_jiaozhunbiao
 577 0552 6748     		ldr r0, = liangcheng
 578 0554 0021     		movs r1, # 0
 579 0556 0160     		str r1, [r0]
 580              		
 581              	__shezhi_jiaodu:
 582 0558 00F03FF8 		bl __shezhi_jiaodu_xianshi
 583 055c 00F09BFA 		bl __an_jian
 584 0560 0128     		cmp r0, # 1
 585 0562 02D0     		beq __jiaodu_jia
 586 0564 0228     		cmp r0, # 2
 587 0566 0ED0     		beq __jiaodu_jian
 588 0568 F6E7     		b __shezhi_jiaodu
 589              	__jiaodu_jia:
 590 056a 00F094FA 		bl __an_jian
 591 056e 0328     		cmp r0, # 3
 592 0570 17D0     		beq __jiaodu_shezhi_wan
 593 0572 0028     		cmp r0, # 0
 594 0574 02D0     		beq __jiaodu_jiale
 595 0576 00F030F8 		bl __shezhi_jiaodu_xianshi
 596 057a F6E7     		b __jiaodu_jia
 597              	__jiaodu_jiale:
 598 057c 5549     		ldr r1, = qiwang_jiaodu
 599 057e 0A58     		ldr r2, [r1, r0]
 600 0580 0132     		adds r2, r2, # 1
 601 0582 0A50     		str r2, [r1, r0]
 602 0584 E8E7     		b __shezhi_jiaodu
 603              	__jiaodu_jian:
 604 0586 00F086FA 		bl __an_jian
 605 058a 0328     		cmp r0, # 3
 606 058c 09D0     		beq __jiaodu_shezhi_wan
 607 058e 0028     		cmp r0, # 0
 608 0590 02D0     		beq __jiaodu_jianle
 609 0592 00F022F8 		bl __shezhi_jiaodu_xianshi
 610 0596 F6E7     		b __jiaodu_jian
 611              	__jiaodu_jianle:
 612 0598 4E49     		ldr r1, = qiwang_jiaodu
 613 059a 0A68     		ldr r2, [r1]
 614 059c 013A     		subs r2, r2, # 1
 615 059e 0A60     		str r2, [r1]
 616 05a0 DAE7     		b __shezhi_jiaodu
 617              	
 618              	__jiaodu_shezhi_wan:
 619 05a2 4A48     		ldr r0, = shangbi_r
 620 05a4 4A49     		ldr r1, = shangbi_i
ARM GAS  1.s 			page 12


 621 05a6 0068     		ldr r0, [r0]
 622 05a8 0968     		ldr r1, [r1]
 623 05aa 00F0D4F9 		bl __atan2_ji_suan
 624 05ae C013     		asrs r0, r0, # 15
 625 05b0 4849     		ldr r1, = qiwang_jiaodu
 626 05b2 0968     		ldr r1, [r1]
 627 05b4 401A     		subs r0, r0, r1
 628 05b6 00F079F9 		bl __jisuan_cos_sin
 629 05ba 514A     		ldr r2, = jiaodu_r
 630 05bc 514B     		ldr r3, = jiaodu_i
 631 05be 1060     		str r0, [r2]
 632 05c0 1960     		str r1, [r3]
 633 05c2 464F     		ldr r7, = 0x2fff
 634              	__yy2:
 635 05c4 4648     		ldr r0, = wan
 636 05c6 4749     		ldr r1, = shumaguanma
 637 05c8 0068     		ldr r0, [r0]
 638 05ca 0860     		str r0, [r1]
 639 05cc 00F05CFF 		bl _xieshumaguan
 640              	
 641 05d0 013F     		subs r7, r7, # 1
 642 05d2 F7D1     		bne __yy2
 643 05d4 00F0B1F8 		bl __xie_flash
 644 05d8 01BE     		bkpt # 1
 645              	
 646              	__shezhi_jiaodu_xianshi:
 647 05da 03B5     		push {r0-r1,lr}
 648 05dc 3D48     		ldr r0, = qiwang_jiaodu
 649 05de 0068     		ldr r0, [r0]
 650 05e0 4949     		ldr r1, = danwei
 651 05e2 0A68     		ldr r2, [r1]
 652 05e4 5208     		lsrs r2, r2, # 1
 653 05e6 5200     		lsls r2, r2, # 1
 654 05e8 0A60     		str r2, [r1]
 655 05ea 0000     		movs r0, r0
 656 05ec 07D5     		bpl __xian_shi_jiao_du
 657 05ee C043     		mvns r0, r0
 658 05f0 0130     		adds r0, r0, # 1
 659 05f2 4549     		ldr r1, = danwei
 660 05f4 0A68     		ldr r2, [r1]
 661 05f6 5208     		lsrs r2, r2, # 1
 662 05f8 5200     		lsls r2, r2, # 1
 663 05fa 0132     		adds r2, r2, # 1
 664 05fc 0A60     		str r2, [r1]
 665              	__xian_shi_jiao_du:
 666 05fe 0221     		movs r1, # 2
 667 0600 00F026FF 		bl _zhuanshumaguanma
 668 0604 00F040FF 		bl _xieshumaguan
 669 0608 03BD     		pop {r0-r1,pc}
 670              	
 671              	__z_r:
 672 060a 00F085F8 		bl __du_jiaozhunbiao
 673 060e 3848     		ldr r0, = liangcheng
 674 0610 0021     		movs r1, # 0
 675 0612 0160     		str r1, [r0]
 676              	__shezhi_z_r:
 677 0614 00F03DF8 		bl __shezhi_z_r_xianshi
ARM GAS  1.s 			page 13


 678 0618 00F03DFA 		bl __an_jian
 679 061c 0128     		cmp r0, # 1
 680 061e 02D0     		beq __shezhi_z_r_jia
 681 0620 0228     		cmp r0, # 2
 682 0622 11D0     		beq __shezhi_z_r_jian
 683 0624 F6E7     		b __shezhi_z_r
 684              	__shezhi_z_r_jia:
 685 0626 00F036FA 		bl __an_jian
 686 062a 0328     		cmp r0, # 3
 687 062c 1DD0     		beq __shezhi_z_r_baocun
 688 062e 0028     		cmp r0, # 0
 689 0630 02D0     		beq __shezhi_z_r_jiale
 690 0632 00F02EF8 		bl __shezhi_z_r_xianshi
 691 0636 F6E7     		b __shezhi_z_r_jia
 692              	__shezhi_z_r_jiale:
 693 0638 2D48     		ldr r0, = liangcheng
 694 063a 0068     		ldr r0, [r0]
 695 063c 8000     		lsls r0, r0, # 2
 696 063e 2F49     		ldr r1, = chuchang_r
 697 0640 0A58     		ldr r2, [r1, r0]
 698 0642 0132     		adds r2, r2, # 1
 699 0644 0A50     		str r2, [r1, r0]
 700 0646 E5E7     		b __shezhi_z_r
 701              	__shezhi_z_r_jian:
 702 0648 00F025FA 		bl __an_jian
 703 064c 0328     		cmp r0, # 3
 704 064e 0CD0     		beq __shezhi_z_r_baocun
 705 0650 0028     		cmp r0, # 0
 706 0652 02D0     		beq __shezhi_z_r_jianle
 707 0654 00F01DF8 		bl __shezhi_z_r_xianshi
 708 0658 F6E7     		b __shezhi_z_r_jian
 709              	__shezhi_z_r_jianle:
 710 065a 2548     		ldr r0, = liangcheng
 711 065c 0068     		ldr r0, [r0]
 712 065e 8000     		lsls r0, r0, # 2
 713 0660 2649     		ldr r1, = chuchang_r
 714 0662 0A58     		ldr r2, [r1, r0]
 715 0664 013A     		subs r2, r2, # 1
 716 0666 0A50     		str r2, [r1, r0]
 717 0668 D4E7     		b __shezhi_z_r
 718              	
 719              	__shezhi_z_r_baocun:
 720 066a 2148     		ldr r0, = liangcheng
 721 066c 0168     		ldr r1, [r0]
 722 066e 0131     		adds r1, r1, # 1
 723 0670 0160     		str r1, [r0]
 724 0672 0229     		cmp r1, # 2
 725 0674 CED1     		bne __shezhi_z_r
 726              	__shezhi_z_r_wan:
 727 0676 0021     		movs r1, # 0
 728 0678 0160     		str r1, [r0]
 729              	
 730 067a 184F     		ldr r7, = 0x2fff
 731              	__yy3:
 732 067c 1848     		ldr r0, = wan
 733 067e 1949     		ldr r1, = shumaguanma
 734 0680 0068     		ldr r0, [r0]
ARM GAS  1.s 			page 14


 735 0682 0860     		str r0, [r1]
 736 0684 00F000FF 		bl _xieshumaguan
 737              	
 738 0688 013F     		subs r7, r7, # 1
 739 068a F7D1     		bne __yy3
 740 068c 00F055F8 		bl __xie_flash
 741 0690 01BE     		bkpt # 1
 742              	
 743              	__shezhi_z_r_xianshi:
 744 0692 03B5     		push {r0-r1,lr}
 745 0694 00F0F2F8 		bl __xiangwei_xuanzhuan
 746 0698 1748     		ldr r0, = z_r
 747 069a 0068     		ldr r0, [r0]
 748 069c 1549     	        ldr r1, = r
 749 069e 174A     		ldr r2, = chuchang_r
 750 06a0 00F0D1F9 		bl __xianshi_neizu
 751 06a4 03BD     		pop {r0-r1,pc}
 752              	
 753              	@	movs r0, # 3
 754              	@	movs r1, # 0xff
 755              	@	bl _zhuanshumaguanma
 756              	@	bl _xieshumaguan
 757 06a6 FFE7     		b __ren_wu_diao_du
 758              	__ren_wu_diao_du:
 759 06a8 00F0F5F9 		bl __an_jian
 760 06ac 8000     		lsls r0, r0, # 2
 761 06ae 1749     		ldr r1, = an_jian_biao
 762 06b0 0A58     		ldr r2, [r1, r0]
 763 06b2 9746     		mov pc, r2
 764              	
 765              	
 766              		
 767              	ting:
 768 06b4 00F0E2F8 		bl __xiangwei_xuanzhuan
 769 06b8 0F48     		ldr r0, = z_r
 770 06ba 0068     		ldr r0, [r0]
 771 06bc 1449     		ldr r1, = f_r
 772 06be 154A     		ldr r2, = f_chuchang_r
 773 06c0 00F0C1F9 		bl __xianshi_neizu
 774 06c4 F0E7     		b __ren_wu_diao_du
 775 06c6 0000C80F 		.ltorg
 775      0020E40F 
 775      0020E80F 
 775      0020D00F 
 775      0020BC0F 
 776              	
 777              	__du_jiaozhunbiao:
 778 0718 4648     		ldr r0, = 0x8000008
 779 071a 0168     		ldr r1, [r0]
 780 071c 4268     		ldr r2, [r0, # 0x04]
 781 071e 8368     		ldr r3, [r0, # 0x08]
 782 0720 C468     		ldr r4, [r0, # 0x0c]
 783 0722 0569     		ldr r5, [r0, # 0x10]
 784 0724 4669     		ldr r6, [r0, # 0x14]
 785 0726 8769     		ldr r7, [r0, # 0x18]
 786 0728 4348     		ldr r0, = chuchang_r
 787 072a 0160     		str r1, [r0]
ARM GAS  1.s 			page 15


 788 072c 4260     		str r2, [r0, # 0x04]
 789 072e 8360     		str r3, [r0, # 0x08]
 790 0730 C460     		str r4, [r0, # 0x0c]
 791 0732 0561     		str r5, [r0, # 0x10]
 792 0734 4661     		str r6, [r0, # 0x14]
 793 0736 8761     		str r7, [r0, # 0x18]
 794 0738 7047     		bx lr
 795              	
 796              		
 797              	__xie_flash:
 798 073a 4048     		ldr r0, = 0x40021000
 799 073c 4168     		ldr r1, [r0, # 0x04]
 800 073e 404A     		ldr r2, = 0x1fff0f00
 801 0740 090C     		lsrs r1, r1, # 0x10
 802 0742 1269     		ldr r2, [r2, # 0x10]
 803 0744 0904     		lsls r1, r1, # 0x10
 804 0746 D204     		lsls r2, r2, # 0x13
 805 0748 D20C     		lsrs r2, r2, # 0x13
 806 074a 1143     		orrs r1, r1, r2
 807 074c 0122     		movs r2, # 1
 808 074e D203     		lsls r2, r2, # 15
 809 0750 1143     		orrs r1, r1, r2
 810 0752 4160     		str r1, [r0, # 0x04]
 811              	__deng_shizhong:
 812 0754 4168     		ldr r1, [r0, # 0x04]
 813 0756 C903     		lsls r1, r1, # 15
 814 0758 FCD5     		bpl __deng_shizhong
 815 075a 3A4A     		ldr r2, = 0x40022000   @FLASH访问控制
 816 075c 3A49     		ldr r1, = 0x45670123
 817 075e 9160     		str r1, [r2, # 0x08]
 818 0760 3A49     		ldr r1, = 0xcdef89ab
 819 0762 9160     		str r1, [r2, # 0x08]
 820              	
 821 0764 3648     		ldr r0, = 0x1fff0f00
 822 0766 4030     		adds r0, r0, # 64
 823 0768 C16A     		ldr r1, [r0, # 0x2c]
 824 076a CBB2     		uxtb r3, r1
 825 076c 3849     		ldr r1, = 0x40022100
 826 076e 0B60     		str r3, [r1]
 827 0770 C36A     		ldr r3, [r0, # 0x2c]
 828 0772 DB01     		lsls r3, r3, # 7
 829 0774 DB0D     		lsrs r3, r3, # 23
 830 0776 4B60     		str r3, [r1, # 0x04]
 831 0778 C36A     		ldr r3, [r0, # 0x2c]
 832 077a 1B04     		lsls r3, r3, # 16
 833 077c 1B0E     		lsrs r3, r3, # 24
 834 077e 0B61     		str r3, [r1, # 0x10]
 835 0780 036B     		ldr r3, [r0, # 0x30]
 836 0782 DBB2     		uxtb r3, r3
 837 0784 8B60     		str r3, [r1, # 0x08]
 838 0786 036B     		ldr r3, [r0, # 0x30]
 839 0788 5B01     		lsls r3, r3, # 5
 840 078a 5B0D     		lsrs r3, r3, # 21
 841 078c CB60     		str r3, [r1, # 0x0c]
 842 078e 436B     		ldr r3, [r0, # 0x34]
 843 0790 DB03     		lsls r3, r3, # 15
 844 0792 DB0B     		lsrs r3, r3, # 15
ARM GAS  1.s 			page 16


 845 0794 4363     		str r3, [r0, # 0x34]
 846 0796 836B     		ldr r3, [r0, # 0x38]
 847 0798 DB03     		lsls r3, r3, # 15
 848 079a DB0B     		lsrs r3, r3, # 15
 849 079c 8B61     		str r3, [r1, # 0x18]
 850 079e C36B     		ldr r3, [r0, # 0x3c]
 851 07a0 9BB2     		uxth r3, r3
 852 07a2 CB61     		str r3, [r1, # 0x1c]
 853 07a4 C06B     		ldr r0, [r0, # 0x3c]
 854 07a6 8000     		lsls r0, r0, # 2
 855 07a8 800C     		lsrs r0, r0, # 18
 856 07aa 0862     		str r0, [r1, # 0x20]
 857              	@	bkpt # 77
 858              	
 859              		
 860              	
 861 07ac 2948     		ldr r0, = 0x1000002
 862 07ae 5169     		ldr r1, [r2, # 0x14]
 863 07b0 0843     		orrs r0, r0, r1
 864 07b2 5061     		str r0, [r2, # 0x14]
 865 07b4 00F036F8 		bl __flash_mang
 866 07b8 274B     		ldr r3, = 0x8000000
 867 07ba 2849     		ldr r1, = 0xffffffff
 868 07bc 1960     		str r1, [r3]
 869 07be 00F031F8 		bl __flash_mang
 870              	@	bkpt # 66
 871 07c2 0121     		movs r1, # 1
 872 07c4 1161     		str r1, [r2, # 0x10]
 873 07c6 2648     		ldr r0, = 0x1000001
 874 07c8 5061     		str r0, [r2, # 0x14]
 875 07ca 00F02BF8 		bl __flash_mang
 876              	
 877 07ce 224B     		ldr r3, = 0x8000000
 878 07d0 2449     		ldr r1, = 0x20000160
 879 07d2 1960     		str r1, [r3]
 880 07d4 00F026F8 		bl __flash_mang
 881 07d8 0433     		adds r3, r3, # 4
 882 07da 2349     		ldr r1, = _start
 883 07dc 0131     		adds r1, r1, # 1
 884 07de 1960     		str r1, [r3]
 885 07e0 00F020F8 		bl __flash_mang
 886 07e4 0433     		adds r3, r3, # 4
 887 07e6 1449     		ldr r1, = chuchang_r
 888 07e8 0024     		movs r4, # 0
 889              	__xie_flash_xunhuan:
 890 07ea 0859     		ldr r0, [r1, r4]
 891 07ec 1851     		str r0, [r3, r4]
 892 07ee 00F019F8 		bl __flash_mang
 893 07f2 0434     		adds r4, r4, # 4
 894 07f4 182C     		cmp r4, # 24
 895 07f6 F8D1     		bne __xie_flash_xunhuan
 896 07f8 1849     		ldr r1, = 0xffffffff
 897              	__xie_flash_xunhuan1:
 898 07fa 1951     		str r1, [r3, r4]
 899 07fc 00F012F8 		bl __flash_mang
 900 0800 0434     		adds r4, r4, # 4
 901 0802 742C     		cmp r4, # 0x74
ARM GAS  1.s 			page 17


 902 0804 F9D1     		bne __xie_flash_xunhuan1
 903              	@	bkpt # 12
 904 0806 1948     		ldr r0, = 0x80000
 905 0808 5169     		ldr r1, [r2, # 0x14]
 906 080a 0843     		orrs r0, r0, r1
 907 080c 5061     		str r0, [r2, # 0x14]
 908 080e 00F009F8 		bl __flash_mang
 909 0812 1951     		str r1, [r3, r4]
 910 0814 00F006F8 		bl __flash_mang
 911              	
 912              	@	bkpt # 111
 913              	
 914              		
 915 0818 1549     		ldr r1, = 0x80000000
 916 081a 5161     		str r1, [r2, # 0x14]          		@flsh上锁
 917 081c 1548     		ldr r0, = 0xe000ed0c
 918 081e 1649     		ldr r1, = 0x05fa0004
 919 0820 0160     		str r1, [r0]          		@复位
 920 0822 21BE     		bkpt # 33
 921              	__flash_mang:
 922 0824 1569     		ldr r5, [r2, # 0x10]
 923 0826 ED03     		lsls r5, r5, # 15
 924 0828 FCD4     		bmi __flash_mang
 925 082a 0046     		mov r0, r0
 926 082c 0046     		mov r0, r0
 927 082e 0046     		mov r0, r0
 928 0830 7047     		bx lr
 929 0832 00000800 		.ltorg
 929      0008A40F 
 929      00200010 
 929      0240000F 
 929      FF1F0020 
 930              	__xiangwei_xuanzhuan:
 931 087c FCB5     		push {r2-r7,lr}
 932 087e 4F48     		ldr r0, = f_jiaodu_r  @-3697
 933 0880 4F49     		ldr r1, = f_jiaodu_i  @32558
 934 0882 0068     		ldr r0, [r0]
 935 0884 0968     		ldr r1, [r1]
 936 0886 4F4A     		ldr r2, = shangbi_r
 937 0888 4F4B     		ldr r3, = shangbi_i
 938 088a 1468     		ldr r4, [r2]
 939 088c 1D68     		ldr r5, [r3]
 940 088e 0646     		mov r6, r0
 941 0890 0F46     		mov r7, r1
 942 0892 6043     		muls r0, r0, r4 @X*COS
 943 0894 6F43     		muls r7, r7, r5 @Y*SIN
 944 0896 6143     		muls r1, r1, r4 @X*SIN
 945 0898 6E43     		muls r6, r6, r5 @Y*COS
 946 089a C019     		adds r0, r0, r7
 947 089c 711A     		subs r1, r6, r1
 948 089e C013     		asrs r0, r0, # 15
 949 08a0 C913     		asrs r1, r1, # 15
 950 08a2 4A4A     		ldr r2, = z_r
 951 08a4 4A4B     		ldr r3, = z_i
 952 08a6 1060     		str r0, [r2]
 953 08a8 1960     		str r1, [r3]
 954 08aa FCBD     		pop {r2-r7,pc}
ARM GAS  1.s 			page 18


 955              	
 956              		
 957              	__jisuan_cos_sin:					@jd
 958              		@入口R0=角度 （-18000到+18000）
 959              		@出口R0=COS，R1=SIN
 960 08ac FCB5     		push {r2-r7,lr}
 961 08ae 4949     		ldr r1, = 18000
 962 08b0 8842     		cmp r0, r1
 963 08b2 02D9     		bls __xiaoyu_180
 964 08b4 401A     		subs r0, r0, r1
 965 08b6 0127     		movs r7, # 1
 966 08b8 00E0     		b __js_cos_sin
 967              	__xiaoyu_180:
 968 08ba 0027     		movs r7, # 0
 969              	__js_cos_sin:
 970 08bc 4649     		ldr r1, = 9000
 971 08be 474A     		ldr r2, = 51471
 972 08c0 0000     		movs r0, r0
 973 08c2 03D5     		bpl __jisuan_jiaodu_bushi0
 974 08c4 C043     		mvns r0, r0
 975 08c6 0130     		adds r0, r0, # 1
 976 08c8 0124     		movs r4, # 1
 977 08ca 00E0     		b __jiance_chao90
 978              	__jisuan_jiaodu_bushi0:
 979 08cc 0024     		movs r4, # 0
 980              	__jiance_chao90:
 981 08ce 8842     		cmp r0, r1
 982 08d0 03D9     		bls __xiaoyu_90
 983 08d2 404E     		ldr r6, = 18000
 984 08d4 301A     		subs r0, r6, r0
 985 08d6 0126     		movs r6, # 1
 986 08d8 00E0     		b __suan_cossin
 987              	__xiaoyu_90:
 988 08da 0026     		movs r6, # 0
 989              	__suan_cossin:
 990 08dc 404D     		ldr r5, = 10000
 991 08de 6843     		muls r0, r0, r5
 992 08e0 00F0F4FD 		bl _chufa
 993 08e4 5043     		muls r0, r0, r2
 994 08e6 2946     		mov r1, r5
 995 08e8 00F0F0FD 		bl _chufa
 996 08ec 012C     		cmp r4, # 1
 997 08ee 01D1     		bne __suan_cos_sin1
 998 08f0 C043     		mvns r0, r0
 999 08f2 0130     		adds r0, r0, # 1
 1000              	__suan_cos_sin1:
 1001 08f4 00F00BF8 		bl __cordic_cos_sin
 1002 08f8 012E     		cmp r6, # 1
 1003 08fa 01D1     		bne __cos_sin_fanhui
 1004 08fc C043     		mvns r0, r0
 1005 08fe 0130     		adds r0, r0, # 1
 1006              	__cos_sin_fanhui:
 1007 0900 012F     		cmp r7, # 1
 1008 0902 03D1     		bne __cossin_fh
 1009 0904 C043     		mvns r0, r0
 1010 0906 C943     		mvns r1, r1
 1011 0908 0130     		adds r0, r0, # 1
ARM GAS  1.s 			page 19


 1012 090a 0131     		adds r1, r1, # 1
 1013              	__cossin_fh:
 1014 090c FCBD     		pop {r2-r7,pc}
 1015              	__cordic_cos_sin:
 1016              		@入口R0
 1017              		@出口R0=COS，R1=SIN
 1018              		@ x= 0x4dba
 1019              		@ r1=x,r2=y,r0=z,r4=d,r5=k,r6=cordic_mabiao
 1020              	
 1021 090e FCB5     		push {r2-r7,lr}
 1022 0910 4246     		mov r2, r8
 1023 0912 4B46     		mov r3, r9
 1024 0914 0CB4     		push {r2-r3}
 1025 0916 0025     		movs r5, # 0
 1026 0918 2A46     		mov r2, r5
 1027 091a 2C46     		mov r4, r5
 1028 091c 3149     		ldr r1, = 0x4dba
 1029              	cordicxunhuan:					 @ 循环
 1030 091e C413     		asrs r4, r0, # 15
 1031              		@ x
 1032 0920 1746     		mov r7, r2
 1033 0922 2A41     		asrs r2, r2, r5
 1034 0924 6240     		eors r2, r2, r4
 1035 0926 121B     		subs r2, r2, r4
 1036 0928 8B1A     		subs r3, r1, r2
 1037              		@ y
 1038 092a 0E46     		mov r6, r1
 1039 092c 2941     		asrs r1, r1, r5
 1040 092e 6140     		eors r1, r1, r4
 1041 0930 091B     		subs r1, r1, r4
 1042 0932 7F18     		adds r7, r7, r1
 1043              		@ z
 1044 0934 2C4E     		ldr r6, = cordic_yong_atan_biao
 1045 0936 AA00     		lsls r2, r5, # 2
 1046 0938 B158     		ldr r1, [r6, r2]
 1047 093a 6140     		eors r1, r1, r4
 1048 093c 091B     		subs r1, r1, r4
 1049 093e 401A     		subs r0, r0, r1
 1050 0940 1946     		mov r1, r3
 1051 0942 3A46     		mov r2, r7
 1052 0944 0135     		adds r5, # 1
 1053 0946 102D     		cmp r5, # 16
 1054 0948 E9D1     		bne cordicxunhuan
 1055 094a 1846     		mov r0, r3
 1056 094c 3946     		mov r1, r7
 1057 094e 0CBC     		pop {r2-r3}
 1058 0950 9046     		mov r8, r2
 1059 0952 9946     		mov r9, r3
 1060 0954 FCBD     		pop {r2-r7,pc}
 1061              	__atan2_ji_suan:					@jt
 1062              		@入口R0=实部，R1=虚部，结果=R0
 1063 0956 FCB5     		push {r2-r7,lr}
 1064 0958 4246     		mov r2, r8
 1065 095a 04B4     		push {r2}
 1066 095c 234B     		ldr r3, = cordic_yong_cos_sin
 1067 095e 0A22     		movs r2, # 10
 1068 0960 5043     		muls r0, r0, r2
ARM GAS  1.s 			page 20


 1069 0962 5143     		muls r1, r1, r2
 1070 0964 0022     		movs r2, # 0
 1071 0966 9046     		mov r8, r2
 1072 0968 1B4C     		ldr r4, = 9000
 1073 096a E403     		lsls r4, r4, # 15
 1074              	__cordic_atan2_xun_huan:
 1075              	__du_cos_sin:
 1076 096c 1D68     		ldr r5, [r3]	@cos
 1077 096e 0433     		adds r3, r3, # 4
 1078 0970 2F46     		mov r7, r5
 1079 0972 1E68     		ldr r6, [r3]	@sin
 1080 0974 0433     		adds r3, r3, # 4
 1081 0976 3246     		mov r2, r6
 1082 0978 4543     		muls r5, r5, r0         @x*cos
 1083 097a 4243     		muls r2, r2, r0         @x*sin
 1084 097c 4E43     		muls r6, r6, r1         @y*sin
 1085 097e 4F43     		muls r7, r7, r1         @y*cos
 1086 0980 0900     		movs r1, r1
 1087 0982 05D5     		bpl __ni_shi_zhen_zhuan
 1088              	__shun_shi_zhen_zhuan:
 1089 0984 AD1B     		subs r5, r5, r6
 1090 0986 BF18     		adds r7, r7, r2
 1091 0988 4646     		mov r6, r8
 1092 098a 3619     		adds r6, r6, r4
 1093 098c B046     		mov r8, r6
 1094 098e 04E0     		b __xuan_zhuan_wan
 1095              	__ni_shi_zhen_zhuan:
 1096 0990 AD19     		adds r5, r5, r6
 1097 0992 BF1A     		subs r7, r7, r2
 1098 0994 4646     		mov r6, r8
 1099 0996 361B     		subs r6, r6, r4
 1100 0998 B046     		mov r8, r6
 1101              	__xuan_zhuan_wan:
 1102 099a 144E     		ldr r6, = cordic_yong_cos_sin
 1103 099c 2022     		movs r2, # 32
 1104 099e 9200     		lsls r2, r2, # 2
 1105 09a0 B618     		adds r6, r6, r2
 1106 09a2 AD13     		asrs r5, r5, # 14
 1107 09a4 BF13     		asrs r7, r7, # 14
 1108 09a6 2846     		mov r0, r5
 1109 09a8 3946     		mov r1, r7
 1110 09aa 6408     		lsrs r4, r4, # 1	@旋转
 1111 09ac B342     		cmp r3,	r6
 1112 09ae DDD1     		bne __cordic_atan2_xun_huan
 1113 09b0 4046     		mov r0, r8
 1114 09b2 C043     		mvns r0, r0
 1115 09b4 0130     		adds r0, r0, # 1
 1116              		@	asrs r0, r0, # 15      @除32768等于角度
 1117 09b6 04BC     		pop {r2}
 1118 09b8 9046     		mov r8, r2
 1119 09ba FCBD     		pop {r2-r7,pc}
 1120 09bc 10000008 		.ltorg
 1120      14000008 
 1120      E40F0020 
 1120      E80F0020 
 1120      C00F0020 
 1121              	
ARM GAS  1.s 			page 21


 1122              		
 1123              	__suan_atan2:
 1124              		@入口R0=实部，R1=虚部
 1125              		@出口R0=角度
 1126 09f0 7CB5     		push {r2-r6,lr}
 1127 09f2 334E     		ldr r6, = atan_biao
 1128 09f4 0022     		movs r2, # 0
 1129 09f6 1346     		mov r3, r2
 1130 09f8 0000     		movs r0, r0
 1131 09fa 04D5     		bpl __panduan_xubu
 1132 09fc 314A     		ldr r2, = 5898240
 1133 09fe C043     		mvns r0, r0
 1134 0a00 C943     		mvns r1, r1
 1135 0a02 0130     		adds r0, r0, # 1
 1136 0a04 0131     		adds r1, r1, # 1
 1137              	__panduan_xubu:
 1138 0a06 0900     		movs r1, r1
 1139 0a08 00D5     		bpl __suan_atan2_xunhuan
 1140 0a0a 2F4A     		ldr r2, = 11796480
 1141              	__suan_atan2_xunhuan:
 1142 0a0c 0900     		movs r1, r1
 1143 0a0e 0AD5     		bpl __atan2_zhengzhuan
 1144 0a10 0446     		mov r4, r0	@x
 1145 0a12 0D46     		mov r5, r1	@y
 1146 0a14 1D41     		asrs r5, r5, r3
 1147 0a16 1C41     		asrs r4, r4, r3
 1148 0a18 401B     		subs r0, r0, r5
 1149 0a1a 0919     		adds r1, r1, r4
 1150 0a1c 1C46     		mov r4, r3
 1151 0a1e A400     		lsls r4, r4, # 2
 1152 0a20 3459     		ldr r4, [r6, r4]
 1153 0a22 121B     		subs r2, r2, r4
 1154 0a24 09E0     		b __atan2_xuanzhuan
 1155              	__atan2_zhengzhuan:
 1156 0a26 0446     		mov r4, r0	@x
 1157 0a28 0D46     		mov r5, r1	@y
 1158 0a2a 1D41     		asrs r5, r5, r3
 1159 0a2c 1C41     		asrs r4, r4, r3
 1160 0a2e 4019     		adds r0, r0, r5
 1161 0a30 091B     		subs r1, r1, r4
 1162 0a32 1C46     		mov r4, r3
 1163 0a34 A400     		lsls r4, r4, # 2
 1164 0a36 3459     		ldr r4, [r6, r4]
 1165 0a38 1219     		adds r2, r2, r4
 1166              	__atan2_xuanzhuan:
 1167 0a3a 0133     		adds r3, r3, # 1
 1168 0a3c 152B     		cmp r3, # 21
 1169 0a3e E5D1     		bne __suan_atan2_xunhuan
 1170 0a40 0146     		mov r1, r0
 1171 0a42 1046     		mov r0,r2
 1172 0a44 7CBD     		pop {r2-r6,pc}
 1173              	
 1174              		
 1175              	__xianshi_neizu:
 1176 0a46 7EB5     		push {r1-r6,lr}
 1177 0a48 0446     		mov r4, r0
 1178 0a4a 0D46     		mov r5, r1
ARM GAS  1.s 			page 22


 1179 0a4c 1646     		mov r6, r2
 1180 0a4e 1F48     		ldr r0, = liangcheng
 1181 0a50 1F49     		ldr r1, = danwei_biao
 1182 0a52 0068     		ldr r0, [r0]
 1183 0a54 1F4B     		ldr r3, = xiaoshudian_weizhi
 1184 0a56 095C     		ldrb r1, [r1, r0]
 1185 0a58 1B5C     		ldrb r3, [r3, r0]
 1186 0a5a 1F4A     		ldr r2, = danwei
 1187 0a5c 1160     		str r1, [r2]
 1188              	@	ldr r5, = f_r
 1189              	@	ldr r1, = f_chuchang_r
 1190 0a5e 8000     		lsls r0, r0, # 2
 1191 0a60 3658     		ldr r6, [r6, r0]
 1192 0a62 2D58     		ldr r5, [r5, r0]
 1193 0a64 641B     		subs r4, r4, r5
 1194 0a66 2046     		mov r0, r4
 1195 0a68 7043     		muls r0, r0, r6
 1196 0a6a C013     		asrs r0, r0, # 15
 1197 0a6c 1A49     		ldr r1, = danwei
 1198 0a6e 0A68     		ldr r2, [r1]
 1199 0a70 5208     		lsrs r2, r2, # 1
 1200 0a72 5200     		lsls r2, r2, # 1
 1201 0a74 0A60     		str r2, [r1]
 1202 0a76 0000     		movs r0, r0
 1203 0a78 07D5     		bpl __xian_shi_nei_zu
 1204 0a7a C043     		mvns r0, r0
 1205 0a7c 0130     		adds r0, r0, # 1
 1206 0a7e 1649     	        ldr r1, = danwei
 1207 0a80 0A68     		ldr r2, [r1]
 1208 0a82 5208     		lsrs r2, r2, # 1
 1209 0a84 5200     		lsls r2, r2, # 1
 1210 0a86 0132     		adds r2, r2, # 1
 1211 0a88 0A60     		str r2, [r1]
 1212              		
 1213              	__xian_shi_nei_zu:	
 1214 0a8a 1946     		mov r1, r3
 1215 0a8c 00F0E0FC 		bl _zhuanshumaguanma
 1216 0a90 00F0FAFC 		bl _xieshumaguan
 1217 0a94 7EBD     		pop {r1-r6,pc}
 1218              	
 1219              	__an_jian:
 1220              		@入口PA2=按键1，PA3=按键2
 1221              		@出口R0
 1222 0a96 1148     		ldr r0, = 0x50000010
 1223 0a98 0068     		ldr r0, [r0]	@pa6 pa9
 1224 0a9a C043     		mvns r0, r0
 1225 0a9c 0007     		lsls r0, r0, # 28
 1226 0a9e 800F     		lsrs r0, r0, # 30
 1227 0aa0 7047     		bx lr
 1228              		
 1229              	__dft:
 1230 0aa2 FCB5     		push {r2-r7,lr}
 1231 0aa4 5546     		mov r5, r10
 1232 0aa6 5E46     		mov r6, r11
 1233 0aa8 6746     		mov r7, r12
 1234 0aaa E0B4     		push {r5-r7}
 1235 0aac 0C48     		ldr r0, = cossin
ARM GAS  1.s 			page 23


 1236 0aae 0D49     		ldr r1, = dianyabiao
 1237 0ab0 0068     		ldr r0, [r0]
 1238 0ab2 0026     		movs r6, # 0
 1239 0ab4 3746     		mov r7, r6
 1240 0ab6 EC46     		mov r12, sp
 1241 0ab8 8346     		mov r11, r0
 1242 0aba 8A46     		mov r10, r1
 1243 0abc 14E0     		b __dft_xunhuan
 1244 0abe 00009016 		.ltorg
 1244      00000000 
 1244      5A000000 
 1244      B400CC0F 
 1244      00202017 
 1245              	__dft_xunhuan:
 1246              		@0
 1247 0ae8 DD46     		mov sp, r11
 1248 0aea 0FBC     		pop {r0-r3}
 1249 0aec EB46     		mov r11, sp
 1250 0aee D546     		mov sp, r10
 1251 0af0 10BC     		pop {r4}
 1252 0af2 EA46     		mov r10, sp
 1253 0af4 2546     		mov r5, r4
 1254 0af6 2404     		lsls r4, r4, # 16
 1255 0af8 240C     		lsrs r4, r4, # 16
 1256 0afa 2D0C     		lsrs r5, r5, # 16
 1257 0afc 6043     		muls r0, r0, r4		@R
 1258 0afe 6143     		muls r1, r1, r4		@I
 1259 0b00 6A43     		muls r2, r2, r5		@R
 1260 0b02 6B43     		muls r3, r3, r5		@I
 1261 0b04 8011     		asrs r0, r0, # 6
 1262 0b06 8911     		asrs r1, r1, # 6
 1263 0b08 9211     		asrs r2, r2, # 6
 1264 0b0a 9B11     		asrs r3, r3, # 6
 1265 0b0c 8018     		adds r0, r0, r2	 @r
 1266 0b0e C918     		adds r1, r1, r3	 @i
 1267 0b10 3618     		adds r6, r6, r0
 1268 0b12 7F18     		adds r7, r7, r1
 1269              	
 1270 0b14 DD46     		mov sp, r11
 1271 0b16 0FBC     		pop {r0-r3}
 1272 0b18 EB46     		mov r11, sp
 1273 0b1a D546     		mov sp, r10
 1274 0b1c 10BC     		pop {r4}
 1275 0b1e EA46     		mov r10, sp
 1276 0b20 2546     		mov r5, r4
 1277 0b22 2404     		lsls r4, r4, # 16
 1278 0b24 240C     		lsrs r4, r4, # 16
 1279 0b26 2D0C     		lsrs r5, r5, # 16
 1280 0b28 6043     		muls r0, r0, r4
 1281 0b2a 6143     		muls r1, r1, r4
 1282 0b2c 6A43     		muls r2, r2, r5
 1283 0b2e 6B43     		muls r3, r3, r5
 1284 0b30 8011     		asrs r0, r0, # 6
 1285 0b32 8911     		asrs r1, r1, # 6
 1286 0b34 9211     		asrs r2, r2, # 6
 1287 0b36 9B11     		asrs r3, r3, # 6
 1288 0b38 8018     		adds r0, r0, r2         @r
ARM GAS  1.s 			page 24


 1289 0b3a C918     		adds r1, r1, r3         @i
 1290 0b3c 3618     		adds r6, r6, r0
 1291 0b3e 7F18     		adds r7, r7, r1
 1292              	
 1293 0b40 DD46     		mov sp, r11
 1294 0b42 0FBC     		pop {r0-r3}
 1295 0b44 EB46     		mov r11, sp
 1296 0b46 D546     		mov sp, r10
 1297 0b48 10BC     		pop {r4}
 1298 0b4a EA46     		mov r10, sp
 1299 0b4c 2546     		mov r5, r4
 1300 0b4e 2404     		lsls r4, r4, # 16
 1301 0b50 240C     		lsrs r4, r4, # 16
 1302 0b52 2D0C     		lsrs r5, r5, # 16
 1303 0b54 6043     		muls r0, r0, r4
 1304 0b56 6143     		muls r1, r1, r4
 1305 0b58 6A43     		muls r2, r2, r5
 1306 0b5a 6B43     		muls r3, r3, r5
 1307 0b5c 8011     		asrs r0, r0, # 6
 1308 0b5e 8911     		asrs r1, r1, # 6
 1309 0b60 9211     		asrs r2, r2, # 6
 1310 0b62 9B11     		asrs r3, r3, # 6
 1311 0b64 8018     		adds r0, r0, r2  @r
 1312 0b66 C918     		adds r1, r1, r3  @i
 1313 0b68 3618     		adds r6, r6, r0
 1314 0b6a 7F18     		adds r7, r7, r1
 1315              	
 1316 0b6c DD46     		mov sp, r11
 1317 0b6e 0FBC     		pop {r0-r3}
 1318 0b70 EB46     		mov r11, sp
 1319 0b72 D546     		mov sp, r10
 1320 0b74 10BC     		pop {r4}
 1321 0b76 EA46     		mov r10, sp
 1322 0b78 2546     		mov r5, r4
 1323 0b7a 2404     		lsls r4, r4, # 16
 1324 0b7c 240C     		lsrs r4, r4, # 16
 1325 0b7e 2D0C     		lsrs r5, r5, # 16
 1326 0b80 6043     		muls r0, r0, r4
 1327 0b82 6143     		muls r1, r1, r4
 1328 0b84 6A43     		muls r2, r2, r5
 1329 0b86 6B43     		muls r3, r3, r5
 1330 0b88 8011     		asrs r0, r0, # 6
 1331 0b8a 8911     		asrs r1, r1, # 6
 1332 0b8c 9211     		asrs r2, r2, # 6
 1333 0b8e 9B11     		asrs r3, r3, # 6
 1334 0b90 8018     		adds r0, r0, r2         @r
 1335 0b92 C918     		adds r1, r1, r3         @i
 1336 0b94 3618     		adds r6, r6, r0
 1337 0b96 7F18     		adds r7, r7, r1
 1338              	
 1339              		@1
 1340 0b98 DD46     		mov sp, r11
 1341 0b9a 0FBC     		pop {r0-r3}
 1342 0b9c EB46     		mov r11, sp
 1343 0b9e D546     		mov sp, r10
 1344 0ba0 10BC     		pop {r4}
 1345 0ba2 EA46     		mov r10, sp
ARM GAS  1.s 			page 25


 1346 0ba4 2546     		mov r5, r4
 1347 0ba6 2404     		lsls r4, r4, # 16
 1348 0ba8 240C     		lsrs r4, r4, # 16
 1349 0baa 2D0C     		lsrs r5, r5, # 16
 1350 0bac 6043     		muls r0, r0, r4		@R
 1351 0bae 6143     		muls r1, r1, r4		@I
 1352 0bb0 6A43     		muls r2, r2, r5		@R
 1353 0bb2 6B43     		muls r3, r3, r5		@I
 1354 0bb4 8011     		asrs r0, r0, # 6
 1355 0bb6 8911     		asrs r1, r1, # 6
 1356 0bb8 9211     		asrs r2, r2, # 6
 1357 0bba 9B11     		asrs r3, r3, # 6
 1358 0bbc 8018     		adds r0, r0, r2	 @r
 1359 0bbe C918     		adds r1, r1, r3	 @i
 1360 0bc0 3618     		adds r6, r6, r0
 1361 0bc2 7F18     		adds r7, r7, r1
 1362              	
 1363 0bc4 DD46     		mov sp, r11
 1364 0bc6 0FBC     		pop {r0-r3}
 1365 0bc8 EB46     		mov r11, sp
 1366 0bca D546     		mov sp, r10
 1367 0bcc 10BC     		pop {r4}
 1368 0bce EA46     		mov r10, sp
 1369 0bd0 2546     		mov r5, r4
 1370 0bd2 2404     		lsls r4, r4, # 16
 1371 0bd4 240C     		lsrs r4, r4, # 16
 1372 0bd6 2D0C     		lsrs r5, r5, # 16
 1373 0bd8 6043     		muls r0, r0, r4
 1374 0bda 6143     		muls r1, r1, r4
 1375 0bdc 6A43     		muls r2, r2, r5
 1376 0bde 6B43     		muls r3, r3, r5
 1377 0be0 8011     		asrs r0, r0, # 6
 1378 0be2 8911     		asrs r1, r1, # 6
 1379 0be4 9211     		asrs r2, r2, # 6
 1380 0be6 9B11     		asrs r3, r3, # 6
 1381 0be8 8018     		adds r0, r0, r2         @r
 1382 0bea C918     		adds r1, r1, r3         @i
 1383 0bec 3618     		adds r6, r6, r0
 1384 0bee 7F18     		adds r7, r7, r1
 1385              	
 1386 0bf0 DD46     		mov sp, r11
 1387 0bf2 0FBC     		pop {r0-r3}
 1388 0bf4 EB46     		mov r11, sp
 1389 0bf6 D546     		mov sp, r10
 1390 0bf8 10BC     		pop {r4}
 1391 0bfa EA46     		mov r10, sp
 1392 0bfc 2546     		mov r5, r4
 1393 0bfe 2404     		lsls r4, r4, # 16
 1394 0c00 240C     		lsrs r4, r4, # 16
 1395 0c02 2D0C     		lsrs r5, r5, # 16
 1396 0c04 6043     		muls r0, r0, r4
 1397 0c06 6143     		muls r1, r1, r4
 1398 0c08 6A43     		muls r2, r2, r5
 1399 0c0a 6B43     		muls r3, r3, r5
 1400 0c0c 8011     		asrs r0, r0, # 6
 1401 0c0e 8911     		asrs r1, r1, # 6
 1402 0c10 9211     		asrs r2, r2, # 6
ARM GAS  1.s 			page 26


 1403 0c12 9B11     		asrs r3, r3, # 6
 1404 0c14 8018     		adds r0, r0, r2  @r
 1405 0c16 C918     		adds r1, r1, r3  @i
 1406 0c18 3618     		adds r6, r6, r0
 1407 0c1a 7F18     		adds r7, r7, r1
 1408              	
 1409 0c1c DD46     		mov sp, r11
 1410 0c1e 0FBC     		pop {r0-r3}
 1411 0c20 EB46     		mov r11, sp
 1412 0c22 D546     		mov sp, r10
 1413 0c24 10BC     		pop {r4}
 1414 0c26 EA46     		mov r10, sp
 1415 0c28 2546     		mov r5, r4
 1416 0c2a 2404     		lsls r4, r4, # 16
 1417 0c2c 240C     		lsrs r4, r4, # 16
 1418 0c2e 2D0C     		lsrs r5, r5, # 16
 1419 0c30 6043     		muls r0, r0, r4
 1420 0c32 6143     		muls r1, r1, r4
 1421 0c34 6A43     		muls r2, r2, r5
 1422 0c36 6B43     		muls r3, r3, r5
 1423 0c38 8011     		asrs r0, r0, # 6
 1424 0c3a 8911     		asrs r1, r1, # 6
 1425 0c3c 9211     		asrs r2, r2, # 6
 1426 0c3e 9B11     		asrs r3, r3, # 6
 1427 0c40 8018     		adds r0, r0, r2         @r
 1428 0c42 C918     		adds r1, r1, r3         @i
 1429 0c44 3618     		adds r6, r6, r0
 1430 0c46 7F18     		adds r7, r7, r1
 1431              	
 1432              		@2
 1433 0c48 DD46     		mov sp, r11
 1434 0c4a 0FBC     		pop {r0-r3}
 1435 0c4c EB46     		mov r11, sp
 1436 0c4e D546     		mov sp, r10
 1437 0c50 10BC     		pop {r4}
 1438 0c52 EA46     		mov r10, sp
 1439 0c54 2546     		mov r5, r4
 1440 0c56 2404     		lsls r4, r4, # 16
 1441 0c58 240C     		lsrs r4, r4, # 16
 1442 0c5a 2D0C     		lsrs r5, r5, # 16
 1443 0c5c 6043     		muls r0, r0, r4		@R
 1444 0c5e 6143     		muls r1, r1, r4		@I
 1445 0c60 6A43     		muls r2, r2, r5		@R
 1446 0c62 6B43     		muls r3, r3, r5		@I
 1447 0c64 8011     		asrs r0, r0, # 6
 1448 0c66 8911     		asrs r1, r1, # 6
 1449 0c68 9211     		asrs r2, r2, # 6
 1450 0c6a 9B11     		asrs r3, r3, # 6
 1451 0c6c 8018     		adds r0, r0, r2	 @r
 1452 0c6e C918     		adds r1, r1, r3	 @i
 1453 0c70 3618     		adds r6, r6, r0
 1454 0c72 7F18     		adds r7, r7, r1
 1455              	
 1456 0c74 DD46     		mov sp, r11
 1457 0c76 0FBC     		pop {r0-r3}
 1458 0c78 EB46     		mov r11, sp
 1459 0c7a D546     		mov sp, r10
ARM GAS  1.s 			page 27


 1460 0c7c 10BC     		pop {r4}
 1461 0c7e EA46     		mov r10, sp
 1462 0c80 2546     		mov r5, r4
 1463 0c82 2404     		lsls r4, r4, # 16
 1464 0c84 240C     		lsrs r4, r4, # 16
 1465 0c86 2D0C     		lsrs r5, r5, # 16
 1466 0c88 6043     		muls r0, r0, r4
 1467 0c8a 6143     		muls r1, r1, r4
 1468 0c8c 6A43     		muls r2, r2, r5
 1469 0c8e 6B43     		muls r3, r3, r5
 1470 0c90 8011     		asrs r0, r0, # 6
 1471 0c92 8911     		asrs r1, r1, # 6
 1472 0c94 9211     		asrs r2, r2, # 6
 1473 0c96 9B11     		asrs r3, r3, # 6
 1474 0c98 8018     		adds r0, r0, r2         @r
 1475 0c9a C918     		adds r1, r1, r3         @i
 1476 0c9c 3618     		adds r6, r6, r0
 1477 0c9e 7F18     		adds r7, r7, r1
 1478              	
 1479 0ca0 DD46     		mov sp, r11
 1480 0ca2 0FBC     		pop {r0-r3}
 1481 0ca4 EB46     		mov r11, sp
 1482 0ca6 D546     		mov sp, r10
 1483 0ca8 10BC     		pop {r4}
 1484 0caa EA46     		mov r10, sp
 1485 0cac 2546     		mov r5, r4
 1486 0cae 2404     		lsls r4, r4, # 16
 1487 0cb0 240C     		lsrs r4, r4, # 16
 1488 0cb2 2D0C     		lsrs r5, r5, # 16
 1489 0cb4 6043     		muls r0, r0, r4
 1490 0cb6 6143     		muls r1, r1, r4
 1491 0cb8 6A43     		muls r2, r2, r5
 1492 0cba 6B43     		muls r3, r3, r5
 1493 0cbc 8011     		asrs r0, r0, # 6
 1494 0cbe 8911     		asrs r1, r1, # 6
 1495 0cc0 9211     		asrs r2, r2, # 6
 1496 0cc2 9B11     		asrs r3, r3, # 6
 1497 0cc4 8018     		adds r0, r0, r2  @r
 1498 0cc6 C918     		adds r1, r1, r3  @i
 1499 0cc8 3618     		adds r6, r6, r0
 1500 0cca 7F18     		adds r7, r7, r1
 1501              	
 1502 0ccc DD46     		mov sp, r11
 1503 0cce 0FBC     		pop {r0-r3}
 1504 0cd0 EB46     		mov r11, sp
 1505 0cd2 D546     		mov sp, r10
 1506 0cd4 10BC     		pop {r4}
 1507 0cd6 EA46     		mov r10, sp
 1508 0cd8 2546     		mov r5, r4
 1509 0cda 2404     		lsls r4, r4, # 16
 1510 0cdc 240C     		lsrs r4, r4, # 16
 1511 0cde 2D0C     		lsrs r5, r5, # 16
 1512 0ce0 6043     		muls r0, r0, r4
 1513 0ce2 6143     		muls r1, r1, r4
 1514 0ce4 6A43     		muls r2, r2, r5
 1515 0ce6 6B43     		muls r3, r3, r5
 1516 0ce8 8011     		asrs r0, r0, # 6
ARM GAS  1.s 			page 28


 1517 0cea 8911     		asrs r1, r1, # 6
 1518 0cec 9211     		asrs r2, r2, # 6
 1519 0cee 9B11     		asrs r3, r3, # 6
 1520 0cf0 8018     		adds r0, r0, r2         @r
 1521 0cf2 C918     		adds r1, r1, r3         @i
 1522 0cf4 3618     		adds r6, r6, r0
 1523 0cf6 7F18     		adds r7, r7, r1
 1524              	
 1525              		@3
 1526 0cf8 DD46     		mov sp, r11
 1527 0cfa 0FBC     		pop {r0-r3}
 1528 0cfc EB46     		mov r11, sp
 1529 0cfe D546     		mov sp, r10
 1530 0d00 10BC     		pop {r4}
 1531 0d02 EA46     		mov r10, sp
 1532 0d04 2546     		mov r5, r4
 1533 0d06 2404     		lsls r4, r4, # 16
 1534 0d08 240C     		lsrs r4, r4, # 16
 1535 0d0a 2D0C     		lsrs r5, r5, # 16
 1536 0d0c 6043     		muls r0, r0, r4		@R
 1537 0d0e 6143     		muls r1, r1, r4		@I
 1538 0d10 6A43     		muls r2, r2, r5		@R
 1539 0d12 6B43     		muls r3, r3, r5		@I
 1540 0d14 8011     		asrs r0, r0, # 6
 1541 0d16 8911     		asrs r1, r1, # 6
 1542 0d18 9211     		asrs r2, r2, # 6
 1543 0d1a 9B11     		asrs r3, r3, # 6
 1544 0d1c 8018     		adds r0, r0, r2	 @r
 1545 0d1e C918     		adds r1, r1, r3	 @i
 1546 0d20 3618     		adds r6, r6, r0
 1547 0d22 7F18     		adds r7, r7, r1
 1548              	
 1549 0d24 DD46     		mov sp, r11
 1550 0d26 0FBC     		pop {r0-r3}
 1551 0d28 EB46     		mov r11, sp
 1552 0d2a D546     		mov sp, r10
 1553 0d2c 10BC     		pop {r4}
 1554 0d2e EA46     		mov r10, sp
 1555 0d30 2546     		mov r5, r4
 1556 0d32 2404     		lsls r4, r4, # 16
 1557 0d34 240C     		lsrs r4, r4, # 16
 1558 0d36 2D0C     		lsrs r5, r5, # 16
 1559 0d38 6043     		muls r0, r0, r4
 1560 0d3a 6143     		muls r1, r1, r4
 1561 0d3c 6A43     		muls r2, r2, r5
 1562 0d3e 6B43     		muls r3, r3, r5
 1563 0d40 8011     		asrs r0, r0, # 6
 1564 0d42 8911     		asrs r1, r1, # 6
 1565 0d44 9211     		asrs r2, r2, # 6
 1566 0d46 9B11     		asrs r3, r3, # 6
 1567 0d48 8018     		adds r0, r0, r2         @r
 1568 0d4a C918     		adds r1, r1, r3         @i
 1569 0d4c 3618     		adds r6, r6, r0
 1570 0d4e 7F18     		adds r7, r7, r1
 1571              	
 1572 0d50 DD46     		mov sp, r11
 1573 0d52 0FBC     		pop {r0-r3}
ARM GAS  1.s 			page 29


 1574 0d54 EB46     		mov r11, sp
 1575 0d56 D546     		mov sp, r10
 1576 0d58 10BC     		pop {r4}
 1577 0d5a EA46     		mov r10, sp
 1578 0d5c 2546     		mov r5, r4
 1579 0d5e 2404     		lsls r4, r4, # 16
 1580 0d60 240C     		lsrs r4, r4, # 16
 1581 0d62 2D0C     		lsrs r5, r5, # 16
 1582 0d64 6043     		muls r0, r0, r4
 1583 0d66 6143     		muls r1, r1, r4
 1584 0d68 6A43     		muls r2, r2, r5
 1585 0d6a 6B43     		muls r3, r3, r5
 1586 0d6c 8011     		asrs r0, r0, # 6
 1587 0d6e 8911     		asrs r1, r1, # 6
 1588 0d70 9211     		asrs r2, r2, # 6
 1589 0d72 9B11     		asrs r3, r3, # 6
 1590 0d74 8018     		adds r0, r0, r2  @r
 1591 0d76 C918     		adds r1, r1, r3  @i
 1592 0d78 3618     		adds r6, r6, r0
 1593 0d7a 7F18     		adds r7, r7, r1
 1594              	
 1595 0d7c DD46     		mov sp, r11
 1596 0d7e 0FBC     		pop {r0-r3}
 1597 0d80 EB46     		mov r11, sp
 1598 0d82 D546     		mov sp, r10
 1599 0d84 10BC     		pop {r4}
 1600 0d86 EA46     		mov r10, sp
 1601 0d88 2546     		mov r5, r4
 1602 0d8a 2404     		lsls r4, r4, # 16
 1603 0d8c 240C     		lsrs r4, r4, # 16
 1604 0d8e 2D0C     		lsrs r5, r5, # 16
 1605 0d90 6043     		muls r0, r0, r4
 1606 0d92 6143     		muls r1, r1, r4
 1607 0d94 6A43     		muls r2, r2, r5
 1608 0d96 6B43     		muls r3, r3, r5
 1609 0d98 8011     		asrs r0, r0, # 6
 1610 0d9a 8911     		asrs r1, r1, # 6
 1611 0d9c 9211     		asrs r2, r2, # 6
 1612 0d9e 9B11     		asrs r3, r3, # 6
 1613 0da0 8018     		adds r0, r0, r2         @r
 1614 0da2 C918     		adds r1, r1, r3         @i
 1615 0da4 3618     		adds r6, r6, r0
 1616 0da6 7F18     		adds r7, r7, r1
 1617              	
 1618              		@4
 1619 0da8 DD46     		mov sp, r11
 1620 0daa 0FBC     		pop {r0-r3}
 1621 0dac EB46     		mov r11, sp
 1622 0dae D546     		mov sp, r10
 1623 0db0 10BC     		pop {r4}
 1624 0db2 EA46     		mov r10, sp
 1625 0db4 2546     		mov r5, r4
 1626 0db6 2404     		lsls r4, r4, # 16
 1627 0db8 240C     		lsrs r4, r4, # 16
 1628 0dba 2D0C     		lsrs r5, r5, # 16
 1629 0dbc 6043     		muls r0, r0, r4		@R
 1630 0dbe 6143     		muls r1, r1, r4		@I
ARM GAS  1.s 			page 30


 1631 0dc0 6A43     		muls r2, r2, r5		@R
 1632 0dc2 6B43     		muls r3, r3, r5		@I
 1633 0dc4 8011     		asrs r0, r0, # 6
 1634 0dc6 8911     		asrs r1, r1, # 6
 1635 0dc8 9211     		asrs r2, r2, # 6
 1636 0dca 9B11     		asrs r3, r3, # 6
 1637 0dcc 8018     		adds r0, r0, r2	 @r
 1638 0dce C918     		adds r1, r1, r3	 @i
 1639 0dd0 3618     		adds r6, r6, r0
 1640 0dd2 7F18     		adds r7, r7, r1
 1641              	
 1642 0dd4 DD46     		mov sp, r11
 1643 0dd6 0FBC     		pop {r0-r3}
 1644 0dd8 EB46     		mov r11, sp
 1645 0dda D546     		mov sp, r10
 1646 0ddc 10BC     		pop {r4}
 1647 0dde EA46     		mov r10, sp
 1648 0de0 2546     		mov r5, r4
 1649 0de2 2404     		lsls r4, r4, # 16
 1650 0de4 240C     		lsrs r4, r4, # 16
 1651 0de6 2D0C     		lsrs r5, r5, # 16
 1652 0de8 6043     		muls r0, r0, r4
 1653 0dea 6143     		muls r1, r1, r4
 1654 0dec 6A43     		muls r2, r2, r5
 1655 0dee 6B43     		muls r3, r3, r5
 1656 0df0 8011     		asrs r0, r0, # 6
 1657 0df2 8911     		asrs r1, r1, # 6
 1658 0df4 9211     		asrs r2, r2, # 6
 1659 0df6 9B11     		asrs r3, r3, # 6
 1660 0df8 8018     		adds r0, r0, r2         @r
 1661 0dfa C918     		adds r1, r1, r3         @i
 1662 0dfc 3618     		adds r6, r6, r0
 1663 0dfe 7F18     		adds r7, r7, r1
 1664              	
 1665 0e00 DD46     		mov sp, r11
 1666 0e02 0FBC     		pop {r0-r3}
 1667 0e04 EB46     		mov r11, sp
 1668 0e06 D546     		mov sp, r10
 1669 0e08 10BC     		pop {r4}
 1670 0e0a EA46     		mov r10, sp
 1671 0e0c 2546     		mov r5, r4
 1672 0e0e 2404     		lsls r4, r4, # 16
 1673 0e10 240C     		lsrs r4, r4, # 16
 1674 0e12 2D0C     		lsrs r5, r5, # 16
 1675 0e14 6043     		muls r0, r0, r4
 1676 0e16 6143     		muls r1, r1, r4
 1677 0e18 6A43     		muls r2, r2, r5
 1678 0e1a 6B43     		muls r3, r3, r5
 1679 0e1c 8011     		asrs r0, r0, # 6
 1680 0e1e 8911     		asrs r1, r1, # 6
 1681 0e20 9211     		asrs r2, r2, # 6
 1682 0e22 9B11     		asrs r3, r3, # 6
 1683 0e24 8018     		adds r0, r0, r2  @r
 1684 0e26 C918     		adds r1, r1, r3  @i
 1685 0e28 3618     		adds r6, r6, r0
 1686 0e2a 7F18     		adds r7, r7, r1
 1687              	
ARM GAS  1.s 			page 31


 1688 0e2c DD46     		mov sp, r11
 1689 0e2e 0FBC     		pop {r0-r3}
 1690 0e30 EB46     		mov r11, sp
 1691 0e32 D546     		mov sp, r10
 1692 0e34 10BC     		pop {r4}
 1693 0e36 EA46     		mov r10, sp
 1694 0e38 2546     		mov r5, r4
 1695 0e3a 2404     		lsls r4, r4, # 16
 1696 0e3c 240C     		lsrs r4, r4, # 16
 1697 0e3e 2D0C     		lsrs r5, r5, # 16
 1698 0e40 6043     		muls r0, r0, r4
 1699 0e42 6143     		muls r1, r1, r4
 1700 0e44 6A43     		muls r2, r2, r5
 1701 0e46 6B43     		muls r3, r3, r5
 1702 0e48 8011     		asrs r0, r0, # 6
 1703 0e4a 8911     		asrs r1, r1, # 6
 1704 0e4c 9211     		asrs r2, r2, # 6
 1705 0e4e 9B11     		asrs r3, r3, # 6
 1706 0e50 8018     		adds r0, r0, r2         @r
 1707 0e52 C918     		adds r1, r1, r3         @i
 1708 0e54 3618     		adds r6, r6, r0
 1709 0e56 7F18     		adds r7, r7, r1
 1710              	
 1711              		@5
 1712 0e58 DD46     		mov sp, r11
 1713 0e5a 0FBC     		pop {r0-r3}
 1714 0e5c EB46     		mov r11, sp
 1715 0e5e D546     		mov sp, r10
 1716 0e60 10BC     		pop {r4}
 1717 0e62 EA46     		mov r10, sp
 1718 0e64 2546     		mov r5, r4
 1719 0e66 2404     		lsls r4, r4, # 16
 1720 0e68 240C     		lsrs r4, r4, # 16
 1721 0e6a 2D0C     		lsrs r5, r5, # 16
 1722 0e6c 6043     		muls r0, r0, r4		@R
 1723 0e6e 6143     		muls r1, r1, r4		@I
 1724 0e70 6A43     		muls r2, r2, r5		@R
 1725 0e72 6B43     		muls r3, r3, r5		@I
 1726 0e74 8011     		asrs r0, r0, # 6
 1727 0e76 8911     		asrs r1, r1, # 6
 1728 0e78 9211     		asrs r2, r2, # 6
 1729 0e7a 9B11     		asrs r3, r3, # 6
 1730 0e7c 8018     		adds r0, r0, r2	 @r
 1731 0e7e C918     		adds r1, r1, r3	 @i
 1732 0e80 3618     		adds r6, r6, r0
 1733 0e82 7F18     		adds r7, r7, r1
 1734              	
 1735 0e84 DD46     		mov sp, r11
 1736 0e86 0FBC     		pop {r0-r3}
 1737 0e88 EB46     		mov r11, sp
 1738 0e8a D546     		mov sp, r10
 1739 0e8c 10BC     		pop {r4}
 1740 0e8e EA46     		mov r10, sp
 1741 0e90 2546     		mov r5, r4
 1742 0e92 2404     		lsls r4, r4, # 16
 1743 0e94 240C     		lsrs r4, r4, # 16
 1744 0e96 2D0C     		lsrs r5, r5, # 16
ARM GAS  1.s 			page 32


 1745 0e98 6043     		muls r0, r0, r4
 1746 0e9a 6143     		muls r1, r1, r4
 1747 0e9c 6A43     		muls r2, r2, r5
 1748 0e9e 6B43     		muls r3, r3, r5
 1749 0ea0 8011     		asrs r0, r0, # 6
 1750 0ea2 8911     		asrs r1, r1, # 6
 1751 0ea4 9211     		asrs r2, r2, # 6
 1752 0ea6 9B11     		asrs r3, r3, # 6
 1753 0ea8 8018     		adds r0, r0, r2         @r
 1754 0eaa C918     		adds r1, r1, r3         @i
 1755 0eac 3618     		adds r6, r6, r0
 1756 0eae 7F18     		adds r7, r7, r1
 1757              	
 1758 0eb0 DD46     		mov sp, r11
 1759 0eb2 0FBC     		pop {r0-r3}
 1760 0eb4 EB46     		mov r11, sp
 1761 0eb6 D546     		mov sp, r10
 1762 0eb8 10BC     		pop {r4}
 1763 0eba EA46     		mov r10, sp
 1764 0ebc 2546     		mov r5, r4
 1765 0ebe 2404     		lsls r4, r4, # 16
 1766 0ec0 240C     		lsrs r4, r4, # 16
 1767 0ec2 2D0C     		lsrs r5, r5, # 16
 1768 0ec4 6043     		muls r0, r0, r4
 1769 0ec6 6143     		muls r1, r1, r4
 1770 0ec8 6A43     		muls r2, r2, r5
 1771 0eca 6B43     		muls r3, r3, r5
 1772 0ecc 8011     		asrs r0, r0, # 6
 1773 0ece 8911     		asrs r1, r1, # 6
 1774 0ed0 9211     		asrs r2, r2, # 6
 1775 0ed2 9B11     		asrs r3, r3, # 6
 1776 0ed4 8018     		adds r0, r0, r2  @r
 1777 0ed6 C918     		adds r1, r1, r3  @i
 1778 0ed8 3618     		adds r6, r6, r0
 1779 0eda 7F18     		adds r7, r7, r1
 1780              	
 1781 0edc DD46     		mov sp, r11
 1782 0ede 0FBC     		pop {r0-r3}
 1783 0ee0 EB46     		mov r11, sp
 1784 0ee2 D546     		mov sp, r10
 1785 0ee4 10BC     		pop {r4}
 1786 0ee6 EA46     		mov r10, sp
 1787 0ee8 2546     		mov r5, r4
 1788 0eea 2404     		lsls r4, r4, # 16
 1789 0eec 240C     		lsrs r4, r4, # 16
 1790 0eee 2D0C     		lsrs r5, r5, # 16
 1791 0ef0 6043     		muls r0, r0, r4
 1792 0ef2 6143     		muls r1, r1, r4
 1793 0ef4 6A43     		muls r2, r2, r5
 1794 0ef6 6B43     		muls r3, r3, r5
 1795 0ef8 8011     		asrs r0, r0, # 6
 1796 0efa 8911     		asrs r1, r1, # 6
 1797 0efc 9211     		asrs r2, r2, # 6
 1798 0efe 9B11     		asrs r3, r3, # 6
 1799 0f00 8018     		adds r0, r0, r2         @r
 1800 0f02 C918     		adds r1, r1, r3         @i
 1801 0f04 3618     		adds r6, r6, r0
ARM GAS  1.s 			page 33


 1802 0f06 7F18     		adds r7, r7, r1
 1803              	
 1804              		@6
 1805 0f08 DD46     		mov sp, r11
 1806 0f0a 0FBC     		pop {r0-r3}
 1807 0f0c EB46     		mov r11, sp
 1808 0f0e D546     		mov sp, r10
 1809 0f10 10BC     		pop {r4}
 1810 0f12 EA46     		mov r10, sp
 1811 0f14 2546     		mov r5, r4
 1812 0f16 2404     		lsls r4, r4, # 16
 1813 0f18 240C     		lsrs r4, r4, # 16
 1814 0f1a 2D0C     		lsrs r5, r5, # 16
 1815 0f1c 6043     		muls r0, r0, r4		@R
 1816 0f1e 6143     		muls r1, r1, r4		@I
 1817 0f20 6A43     		muls r2, r2, r5		@R
 1818 0f22 6B43     		muls r3, r3, r5		@I
 1819 0f24 8011     		asrs r0, r0, # 6
 1820 0f26 8911     		asrs r1, r1, # 6
 1821 0f28 9211     		asrs r2, r2, # 6
 1822 0f2a 9B11     		asrs r3, r3, # 6
 1823 0f2c 8018     		adds r0, r0, r2	 @r
 1824 0f2e C918     		adds r1, r1, r3	 @i
 1825 0f30 3618     		adds r6, r6, r0
 1826 0f32 7F18     		adds r7, r7, r1
 1827              	
 1828 0f34 DD46     		mov sp, r11
 1829 0f36 0FBC     		pop {r0-r3}
 1830 0f38 EB46     		mov r11, sp
 1831 0f3a D546     		mov sp, r10
 1832 0f3c 10BC     		pop {r4}
 1833 0f3e EA46     		mov r10, sp
 1834 0f40 2546     		mov r5, r4
 1835 0f42 2404     		lsls r4, r4, # 16
 1836 0f44 240C     		lsrs r4, r4, # 16
 1837 0f46 2D0C     		lsrs r5, r5, # 16
 1838 0f48 6043     		muls r0, r0, r4
 1839 0f4a 6143     		muls r1, r1, r4
 1840 0f4c 6A43     		muls r2, r2, r5
 1841 0f4e 6B43     		muls r3, r3, r5
 1842 0f50 8011     		asrs r0, r0, # 6
 1843 0f52 8911     		asrs r1, r1, # 6
 1844 0f54 9211     		asrs r2, r2, # 6
 1845 0f56 9B11     		asrs r3, r3, # 6
 1846 0f58 8018     		adds r0, r0, r2         @r
 1847 0f5a C918     		adds r1, r1, r3         @i
 1848 0f5c 3618     		adds r6, r6, r0
 1849 0f5e 7F18     		adds r7, r7, r1
 1850              	
 1851 0f60 DD46     		mov sp, r11
 1852 0f62 0FBC     		pop {r0-r3}
 1853 0f64 EB46     		mov r11, sp
 1854 0f66 D546     		mov sp, r10
 1855 0f68 10BC     		pop {r4}
 1856 0f6a EA46     		mov r10, sp
 1857 0f6c 2546     		mov r5, r4
 1858 0f6e 2404     		lsls r4, r4, # 16
ARM GAS  1.s 			page 34


 1859 0f70 240C     		lsrs r4, r4, # 16
 1860 0f72 2D0C     		lsrs r5, r5, # 16
 1861 0f74 6043     		muls r0, r0, r4
 1862 0f76 6143     		muls r1, r1, r4
 1863 0f78 6A43     		muls r2, r2, r5
 1864 0f7a 6B43     		muls r3, r3, r5
 1865 0f7c 8011     		asrs r0, r0, # 6
 1866 0f7e 8911     		asrs r1, r1, # 6
 1867 0f80 9211     		asrs r2, r2, # 6
 1868 0f82 9B11     		asrs r3, r3, # 6
 1869 0f84 8018     		adds r0, r0, r2  @r
 1870 0f86 C918     		adds r1, r1, r3  @i
 1871 0f88 3618     		adds r6, r6, r0
 1872 0f8a 7F18     		adds r7, r7, r1
 1873              	
 1874 0f8c DD46     		mov sp, r11
 1875 0f8e 0FBC     		pop {r0-r3}
 1876 0f90 EB46     		mov r11, sp
 1877 0f92 D546     		mov sp, r10
 1878 0f94 10BC     		pop {r4}
 1879 0f96 EA46     		mov r10, sp
 1880 0f98 2546     		mov r5, r4
 1881 0f9a 2404     		lsls r4, r4, # 16
 1882 0f9c 240C     		lsrs r4, r4, # 16
 1883 0f9e 2D0C     		lsrs r5, r5, # 16
 1884 0fa0 6043     		muls r0, r0, r4
 1885 0fa2 6143     		muls r1, r1, r4
 1886 0fa4 6A43     		muls r2, r2, r5
 1887 0fa6 6B43     		muls r3, r3, r5
 1888 0fa8 8011     		asrs r0, r0, # 6
 1889 0faa 8911     		asrs r1, r1, # 6
 1890 0fac 9211     		asrs r2, r2, # 6
 1891 0fae 9B11     		asrs r3, r3, # 6
 1892 0fb0 8018     		adds r0, r0, r2         @r
 1893 0fb2 C918     		adds r1, r1, r3         @i
 1894 0fb4 3618     		adds r6, r6, r0
 1895 0fb6 7F18     		adds r7, r7, r1
 1896              	
 1897              		@7
 1898 0fb8 DD46     		mov sp, r11
 1899 0fba 0FBC     		pop {r0-r3}
 1900 0fbc EB46     		mov r11, sp
 1901 0fbe D546     		mov sp, r10
 1902 0fc0 10BC     		pop {r4}
 1903 0fc2 EA46     		mov r10, sp
 1904 0fc4 2546     		mov r5, r4
 1905 0fc6 2404     		lsls r4, r4, # 16
 1906 0fc8 240C     		lsrs r4, r4, # 16
 1907 0fca 2D0C     		lsrs r5, r5, # 16
 1908 0fcc 6043     		muls r0, r0, r4		@R
 1909 0fce 6143     		muls r1, r1, r4		@I
 1910 0fd0 6A43     		muls r2, r2, r5		@R
 1911 0fd2 6B43     		muls r3, r3, r5		@I
 1912 0fd4 8011     		asrs r0, r0, # 6
 1913 0fd6 8911     		asrs r1, r1, # 6
 1914 0fd8 9211     		asrs r2, r2, # 6
 1915 0fda 9B11     		asrs r3, r3, # 6
ARM GAS  1.s 			page 35


 1916 0fdc 8018     		adds r0, r0, r2	 @r
 1917 0fde C918     		adds r1, r1, r3	 @i
 1918 0fe0 3618     		adds r6, r6, r0
 1919 0fe2 7F18     		adds r7, r7, r1
 1920              	
 1921 0fe4 DD46     		mov sp, r11
 1922 0fe6 0FBC     		pop {r0-r3}
 1923 0fe8 EB46     		mov r11, sp
 1924 0fea D546     		mov sp, r10
 1925 0fec 10BC     		pop {r4}
 1926 0fee EA46     		mov r10, sp
 1927 0ff0 2546     		mov r5, r4
 1928 0ff2 2404     		lsls r4, r4, # 16
 1929 0ff4 240C     		lsrs r4, r4, # 16
 1930 0ff6 2D0C     		lsrs r5, r5, # 16
 1931 0ff8 6043     		muls r0, r0, r4
 1932 0ffa 6143     		muls r1, r1, r4
 1933 0ffc 6A43     		muls r2, r2, r5
 1934 0ffe 6B43     		muls r3, r3, r5
 1935 1000 8011     		asrs r0, r0, # 6
 1936 1002 8911     		asrs r1, r1, # 6
 1937 1004 9211     		asrs r2, r2, # 6
 1938 1006 9B11     		asrs r3, r3, # 6
 1939 1008 8018     		adds r0, r0, r2         @r
 1940 100a C918     		adds r1, r1, r3         @i
 1941 100c 3618     		adds r6, r6, r0
 1942 100e 7F18     		adds r7, r7, r1
 1943              	
 1944 1010 DD46     		mov sp, r11
 1945 1012 0FBC     		pop {r0-r3}
 1946 1014 EB46     		mov r11, sp
 1947 1016 D546     		mov sp, r10
 1948 1018 10BC     		pop {r4}
 1949 101a EA46     		mov r10, sp
 1950 101c 2546     		mov r5, r4
 1951 101e 2404     		lsls r4, r4, # 16
 1952 1020 240C     		lsrs r4, r4, # 16
 1953 1022 2D0C     		lsrs r5, r5, # 16
 1954 1024 6043     		muls r0, r0, r4
 1955 1026 6143     		muls r1, r1, r4
 1956 1028 6A43     		muls r2, r2, r5
 1957 102a 6B43     		muls r3, r3, r5
 1958 102c 8011     		asrs r0, r0, # 6
 1959 102e 8911     		asrs r1, r1, # 6
 1960 1030 9211     		asrs r2, r2, # 6
 1961 1032 9B11     		asrs r3, r3, # 6
 1962 1034 8018     		adds r0, r0, r2  @r
 1963 1036 C918     		adds r1, r1, r3  @i
 1964 1038 3618     		adds r6, r6, r0
 1965 103a 7F18     		adds r7, r7, r1
 1966              	
 1967 103c DD46     		mov sp, r11
 1968 103e 0FBC     		pop {r0-r3}
 1969 1040 EB46     		mov r11, sp
 1970 1042 D546     		mov sp, r10
 1971 1044 10BC     		pop {r4}
 1972 1046 EA46     		mov r10, sp
ARM GAS  1.s 			page 36


 1973 1048 2546     		mov r5, r4
 1974 104a 2404     		lsls r4, r4, # 16
 1975 104c 240C     		lsrs r4, r4, # 16
 1976 104e 2D0C     		lsrs r5, r5, # 16
 1977 1050 6043     		muls r0, r0, r4
 1978 1052 6143     		muls r1, r1, r4
 1979 1054 6A43     		muls r2, r2, r5
 1980 1056 6B43     		muls r3, r3, r5
 1981 1058 8011     		asrs r0, r0, # 6
 1982 105a 8911     		asrs r1, r1, # 6
 1983 105c 9211     		asrs r2, r2, # 6
 1984 105e 9B11     		asrs r3, r3, # 6
 1985 1060 8018     		adds r0, r0, r2         @r
 1986 1062 C918     		adds r1, r1, r3         @i
 1987 1064 3618     		adds r6, r6, r0
 1988 1066 7F18     		adds r7, r7, r1
 1989              	
 1990              		@8
 1991 1068 DD46     		mov sp, r11
 1992 106a 0FBC     		pop {r0-r3}
 1993 106c EB46     		mov r11, sp
 1994 106e D546     		mov sp, r10
 1995 1070 10BC     		pop {r4}
 1996 1072 EA46     		mov r10, sp
 1997 1074 2546     		mov r5, r4
 1998 1076 2404     		lsls r4, r4, # 16
 1999 1078 240C     		lsrs r4, r4, # 16
 2000 107a 2D0C     		lsrs r5, r5, # 16
 2001 107c 6043     		muls r0, r0, r4		@R
 2002 107e 6143     		muls r1, r1, r4		@I
 2003 1080 6A43     		muls r2, r2, r5		@R
 2004 1082 6B43     		muls r3, r3, r5		@I
 2005 1084 8011     		asrs r0, r0, # 6
 2006 1086 8911     		asrs r1, r1, # 6
 2007 1088 9211     		asrs r2, r2, # 6
 2008 108a 9B11     		asrs r3, r3, # 6
 2009 108c 8018     		adds r0, r0, r2	 @r
 2010 108e C918     		adds r1, r1, r3	 @i
 2011 1090 3618     		adds r6, r6, r0
 2012 1092 7F18     		adds r7, r7, r1
 2013              	
 2014 1094 DD46     		mov sp, r11
 2015 1096 0FBC     		pop {r0-r3}
 2016 1098 EB46     		mov r11, sp
 2017 109a D546     		mov sp, r10
 2018 109c 10BC     		pop {r4}
 2019 109e EA46     		mov r10, sp
 2020 10a0 2546     		mov r5, r4
 2021 10a2 2404     		lsls r4, r4, # 16
 2022 10a4 240C     		lsrs r4, r4, # 16
 2023 10a6 2D0C     		lsrs r5, r5, # 16
 2024 10a8 6043     		muls r0, r0, r4
 2025 10aa 6143     		muls r1, r1, r4
 2026 10ac 6A43     		muls r2, r2, r5
 2027 10ae 6B43     		muls r3, r3, r5
 2028 10b0 8011     		asrs r0, r0, # 6
 2029 10b2 8911     		asrs r1, r1, # 6
ARM GAS  1.s 			page 37


 2030 10b4 9211     		asrs r2, r2, # 6
 2031 10b6 9B11     		asrs r3, r3, # 6
 2032 10b8 8018     		adds r0, r0, r2         @r
 2033 10ba C918     		adds r1, r1, r3         @i
 2034 10bc 3618     		adds r6, r6, r0
 2035 10be 7F18     		adds r7, r7, r1
 2036              	
 2037 10c0 DD46     		mov sp, r11
 2038 10c2 0FBC     		pop {r0-r3}
 2039 10c4 EB46     		mov r11, sp
 2040 10c6 D546     		mov sp, r10
 2041 10c8 10BC     		pop {r4}
 2042 10ca EA46     		mov r10, sp
 2043 10cc 2546     		mov r5, r4
 2044 10ce 2404     		lsls r4, r4, # 16
 2045 10d0 240C     		lsrs r4, r4, # 16
 2046 10d2 2D0C     		lsrs r5, r5, # 16
 2047 10d4 6043     		muls r0, r0, r4
 2048 10d6 6143     		muls r1, r1, r4
 2049 10d8 6A43     		muls r2, r2, r5
 2050 10da 6B43     		muls r3, r3, r5
 2051 10dc 8011     		asrs r0, r0, # 6
 2052 10de 8911     		asrs r1, r1, # 6
 2053 10e0 9211     		asrs r2, r2, # 6
 2054 10e2 9B11     		asrs r3, r3, # 6
 2055 10e4 8018     		adds r0, r0, r2  @r
 2056 10e6 C918     		adds r1, r1, r3  @i
 2057 10e8 3618     		adds r6, r6, r0
 2058 10ea 7F18     		adds r7, r7, r1
 2059              	
 2060 10ec DD46     		mov sp, r11
 2061 10ee 0FBC     		pop {r0-r3}
 2062 10f0 EB46     		mov r11, sp
 2063 10f2 D546     		mov sp, r10
 2064 10f4 10BC     		pop {r4}
 2065 10f6 EA46     		mov r10, sp
 2066 10f8 2546     		mov r5, r4
 2067 10fa 2404     		lsls r4, r4, # 16
 2068 10fc 240C     		lsrs r4, r4, # 16
 2069 10fe 2D0C     		lsrs r5, r5, # 16
 2070 1100 6043     		muls r0, r0, r4
 2071 1102 6143     		muls r1, r1, r4
 2072 1104 6A43     		muls r2, r2, r5
 2073 1106 6B43     		muls r3, r3, r5
 2074 1108 8011     		asrs r0, r0, # 6
 2075 110a 8911     		asrs r1, r1, # 6
 2076 110c 9211     		asrs r2, r2, # 6
 2077 110e 9B11     		asrs r3, r3, # 6
 2078 1110 8018     		adds r0, r0, r2         @r
 2079 1112 C918     		adds r1, r1, r3         @i
 2080 1114 3618     		adds r6, r6, r0
 2081 1116 7F18     		adds r7, r7, r1
 2082              	
 2083              		@9
 2084 1118 DD46     		mov sp, r11
 2085 111a 0FBC     		pop {r0-r3}
 2086 111c EB46     		mov r11, sp
ARM GAS  1.s 			page 38


 2087 111e D546     		mov sp, r10
 2088 1120 10BC     		pop {r4}
 2089 1122 EA46     		mov r10, sp
 2090 1124 2546     		mov r5, r4
 2091 1126 2404     		lsls r4, r4, # 16
 2092 1128 240C     		lsrs r4, r4, # 16
 2093 112a 2D0C     		lsrs r5, r5, # 16
 2094 112c 6043     		muls r0, r0, r4		@R
 2095 112e 6143     		muls r1, r1, r4		@I
 2096 1130 6A43     		muls r2, r2, r5		@R
 2097 1132 6B43     		muls r3, r3, r5		@I
 2098 1134 8011     		asrs r0, r0, # 6
 2099 1136 8911     		asrs r1, r1, # 6
 2100 1138 9211     		asrs r2, r2, # 6
 2101 113a 9B11     		asrs r3, r3, # 6
 2102 113c 8018     		adds r0, r0, r2	 @r
 2103 113e C918     		adds r1, r1, r3	 @i
 2104 1140 3618     		adds r6, r6, r0
 2105 1142 7F18     		adds r7, r7, r1
 2106              	
 2107 1144 DD46     		mov sp, r11
 2108 1146 0FBC     		pop {r0-r3}
 2109 1148 EB46     		mov r11, sp
 2110 114a D546     		mov sp, r10
 2111 114c 10BC     		pop {r4}
 2112 114e EA46     		mov r10, sp
 2113 1150 2546     		mov r5, r4
 2114 1152 2404     		lsls r4, r4, # 16
 2115 1154 240C     		lsrs r4, r4, # 16
 2116 1156 2D0C     		lsrs r5, r5, # 16
 2117 1158 6043     		muls r0, r0, r4
 2118 115a 6143     		muls r1, r1, r4
 2119 115c 6A43     		muls r2, r2, r5
 2120 115e 6B43     		muls r3, r3, r5
 2121 1160 8011     		asrs r0, r0, # 6
 2122 1162 8911     		asrs r1, r1, # 6
 2123 1164 9211     		asrs r2, r2, # 6
 2124 1166 9B11     		asrs r3, r3, # 6
 2125 1168 8018     		adds r0, r0, r2         @r
 2126 116a C918     		adds r1, r1, r3         @i
 2127 116c 3618     		adds r6, r6, r0
 2128 116e 7F18     		adds r7, r7, r1
 2129              	
 2130 1170 DD46     		mov sp, r11
 2131 1172 0FBC     		pop {r0-r3}
 2132 1174 EB46     		mov r11, sp
 2133 1176 D546     		mov sp, r10
 2134 1178 10BC     		pop {r4}
 2135 117a EA46     		mov r10, sp
 2136 117c 2546     		mov r5, r4
 2137 117e 2404     		lsls r4, r4, # 16
 2138 1180 240C     		lsrs r4, r4, # 16
 2139 1182 2D0C     		lsrs r5, r5, # 16
 2140 1184 6043     		muls r0, r0, r4
 2141 1186 6143     		muls r1, r1, r4
 2142 1188 6A43     		muls r2, r2, r5
 2143 118a 6B43     		muls r3, r3, r5
ARM GAS  1.s 			page 39


 2144 118c 8011     		asrs r0, r0, # 6
 2145 118e 8911     		asrs r1, r1, # 6
 2146 1190 9211     		asrs r2, r2, # 6
 2147 1192 9B11     		asrs r3, r3, # 6
 2148 1194 8018     		adds r0, r0, r2  @r
 2149 1196 C918     		adds r1, r1, r3  @i
 2150 1198 3618     		adds r6, r6, r0
 2151 119a 7F18     		adds r7, r7, r1
 2152              	
 2153 119c DD46     		mov sp, r11
 2154 119e 0FBC     		pop {r0-r3}
 2155 11a0 EB46     		mov r11, sp
 2156 11a2 D546     		mov sp, r10
 2157 11a4 10BC     		pop {r4}
 2158 11a6 EA46     		mov r10, sp
 2159 11a8 2546     		mov r5, r4
 2160 11aa 2404     		lsls r4, r4, # 16
 2161 11ac 240C     		lsrs r4, r4, # 16
 2162 11ae 2D0C     		lsrs r5, r5, # 16
 2163 11b0 6043     		muls r0, r0, r4
 2164 11b2 6143     		muls r1, r1, r4
 2165 11b4 6A43     		muls r2, r2, r5
 2166 11b6 6B43     		muls r3, r3, r5
 2167 11b8 8011     		asrs r0, r0, # 6
 2168 11ba 8911     		asrs r1, r1, # 6
 2169 11bc 9211     		asrs r2, r2, # 6
 2170 11be 9B11     		asrs r3, r3, # 6
 2171 11c0 8018     		adds r0, r0, r2         @r
 2172 11c2 C918     		adds r1, r1, r3         @i
 2173 11c4 3618     		adds r6, r6, r0
 2174 11c6 7F18     		adds r7, r7, r1
 2175              	
 2176              		@10
 2177 11c8 DD46     		mov sp, r11
 2178 11ca 0FBC     		pop {r0-r3}
 2179 11cc EB46     		mov r11, sp
 2180 11ce D546     		mov sp, r10
 2181 11d0 10BC     		pop {r4}
 2182 11d2 EA46     		mov r10, sp
 2183 11d4 2546     		mov r5, r4
 2184 11d6 2404     		lsls r4, r4, # 16
 2185 11d8 240C     		lsrs r4, r4, # 16
 2186 11da 2D0C     		lsrs r5, r5, # 16
 2187 11dc 6043     		muls r0, r0, r4		@R
 2188 11de 6143     		muls r1, r1, r4		@I
 2189 11e0 6A43     		muls r2, r2, r5		@R
 2190 11e2 6B43     		muls r3, r3, r5		@I
 2191 11e4 8011     		asrs r0, r0, # 6
 2192 11e6 8911     		asrs r1, r1, # 6
 2193 11e8 9211     		asrs r2, r2, # 6
 2194 11ea 9B11     		asrs r3, r3, # 6
 2195 11ec 8018     		adds r0, r0, r2	 @r
 2196 11ee C918     		adds r1, r1, r3	 @i
 2197 11f0 3618     		adds r6, r6, r0
 2198 11f2 7F18     		adds r7, r7, r1
 2199              	
 2200 11f4 DD46     		mov sp, r11
ARM GAS  1.s 			page 40


 2201 11f6 0FBC     		pop {r0-r3}
 2202 11f8 EB46     		mov r11, sp
 2203 11fa D546     		mov sp, r10
 2204 11fc 10BC     		pop {r4}
 2205 11fe EA46     		mov r10, sp
 2206 1200 2546     		mov r5, r4
 2207 1202 2404     		lsls r4, r4, # 16
 2208 1204 240C     		lsrs r4, r4, # 16
 2209 1206 2D0C     		lsrs r5, r5, # 16
 2210 1208 6043     		muls r0, r0, r4
 2211 120a 6143     		muls r1, r1, r4
 2212 120c 6A43     		muls r2, r2, r5
 2213 120e 6B43     		muls r3, r3, r5
 2214 1210 8011     		asrs r0, r0, # 6
 2215 1212 8911     		asrs r1, r1, # 6
 2216 1214 9211     		asrs r2, r2, # 6
 2217 1216 9B11     		asrs r3, r3, # 6
 2218 1218 8018     		adds r0, r0, r2         @r
 2219 121a C918     		adds r1, r1, r3         @i
 2220 121c 3618     		adds r6, r6, r0
 2221 121e 7F18     		adds r7, r7, r1
 2222              	
 2223 1220 DD46     		mov sp, r11
 2224 1222 0FBC     		pop {r0-r3}
 2225 1224 EB46     		mov r11, sp
 2226 1226 D546     		mov sp, r10
 2227 1228 10BC     		pop {r4}
 2228 122a EA46     		mov r10, sp
 2229 122c 2546     		mov r5, r4
 2230 122e 2404     		lsls r4, r4, # 16
 2231 1230 240C     		lsrs r4, r4, # 16
 2232 1232 2D0C     		lsrs r5, r5, # 16
 2233 1234 6043     		muls r0, r0, r4
 2234 1236 6143     		muls r1, r1, r4
 2235 1238 6A43     		muls r2, r2, r5
 2236 123a 6B43     		muls r3, r3, r5
 2237 123c 8011     		asrs r0, r0, # 6
 2238 123e 8911     		asrs r1, r1, # 6
 2239 1240 9211     		asrs r2, r2, # 6
 2240 1242 9B11     		asrs r3, r3, # 6
 2241 1244 8018     		adds r0, r0, r2  @r
 2242 1246 C918     		adds r1, r1, r3  @i
 2243 1248 3618     		adds r6, r6, r0
 2244 124a 7F18     		adds r7, r7, r1
 2245              	
 2246 124c DD46     		mov sp, r11
 2247 124e 0FBC     		pop {r0-r3}
 2248 1250 EB46     		mov r11, sp
 2249 1252 D546     		mov sp, r10
 2250 1254 10BC     		pop {r4}
 2251 1256 EA46     		mov r10, sp
 2252 1258 2546     		mov r5, r4
 2253 125a 2404     		lsls r4, r4, # 16
 2254 125c 240C     		lsrs r4, r4, # 16
 2255 125e 2D0C     		lsrs r5, r5, # 16
 2256 1260 6043     		muls r0, r0, r4
 2257 1262 6143     		muls r1, r1, r4
ARM GAS  1.s 			page 41


 2258 1264 6A43     		muls r2, r2, r5
 2259 1266 6B43     		muls r3, r3, r5
 2260 1268 8011     		asrs r0, r0, # 6
 2261 126a 8911     		asrs r1, r1, # 6
 2262 126c 9211     		asrs r2, r2, # 6
 2263 126e 9B11     		asrs r3, r3, # 6
 2264 1270 8018     		adds r0, r0, r2         @r
 2265 1272 C918     		adds r1, r1, r3         @i
 2266 1274 3618     		adds r6, r6, r0
 2267 1276 7F18     		adds r7, r7, r1
 2268              	
 2269              		@11
 2270 1278 DD46     		mov sp, r11
 2271 127a 0FBC     		pop {r0-r3}
 2272 127c EB46     		mov r11, sp
 2273 127e D546     		mov sp, r10
 2274 1280 10BC     		pop {r4}
 2275 1282 EA46     		mov r10, sp
 2276 1284 2546     		mov r5, r4
 2277 1286 2404     		lsls r4, r4, # 16
 2278 1288 240C     		lsrs r4, r4, # 16
 2279 128a 2D0C     		lsrs r5, r5, # 16
 2280 128c 6043     		muls r0, r0, r4		@R
 2281 128e 6143     		muls r1, r1, r4		@I
 2282 1290 6A43     		muls r2, r2, r5		@R
 2283 1292 6B43     		muls r3, r3, r5		@I
 2284 1294 8011     		asrs r0, r0, # 6
 2285 1296 8911     		asrs r1, r1, # 6
 2286 1298 9211     		asrs r2, r2, # 6
 2287 129a 9B11     		asrs r3, r3, # 6
 2288 129c 8018     		adds r0, r0, r2	 @r
 2289 129e C918     		adds r1, r1, r3	 @i
 2290 12a0 3618     		adds r6, r6, r0
 2291 12a2 7F18     		adds r7, r7, r1
 2292              	
 2293 12a4 DD46     		mov sp, r11
 2294 12a6 0FBC     		pop {r0-r3}
 2295 12a8 EB46     		mov r11, sp
 2296 12aa D546     		mov sp, r10
 2297 12ac 10BC     		pop {r4}
 2298 12ae EA46     		mov r10, sp
 2299 12b0 2546     		mov r5, r4
 2300 12b2 2404     		lsls r4, r4, # 16
 2301 12b4 240C     		lsrs r4, r4, # 16
 2302 12b6 2D0C     		lsrs r5, r5, # 16
 2303 12b8 6043     		muls r0, r0, r4
 2304 12ba 6143     		muls r1, r1, r4
 2305 12bc 6A43     		muls r2, r2, r5
 2306 12be 6B43     		muls r3, r3, r5
 2307 12c0 8011     		asrs r0, r0, # 6
 2308 12c2 8911     		asrs r1, r1, # 6
 2309 12c4 9211     		asrs r2, r2, # 6
 2310 12c6 9B11     		asrs r3, r3, # 6
 2311 12c8 8018     		adds r0, r0, r2         @r
 2312 12ca C918     		adds r1, r1, r3         @i
 2313 12cc 3618     		adds r6, r6, r0
 2314 12ce 7F18     		adds r7, r7, r1
ARM GAS  1.s 			page 42


 2315              	
 2316 12d0 DD46     		mov sp, r11
 2317 12d2 0FBC     		pop {r0-r3}
 2318 12d4 EB46     		mov r11, sp
 2319 12d6 D546     		mov sp, r10
 2320 12d8 10BC     		pop {r4}
 2321 12da EA46     		mov r10, sp
 2322 12dc 2546     		mov r5, r4
 2323 12de 2404     		lsls r4, r4, # 16
 2324 12e0 240C     		lsrs r4, r4, # 16
 2325 12e2 2D0C     		lsrs r5, r5, # 16
 2326 12e4 6043     		muls r0, r0, r4
 2327 12e6 6143     		muls r1, r1, r4
 2328 12e8 6A43     		muls r2, r2, r5
 2329 12ea 6B43     		muls r3, r3, r5
 2330 12ec 8011     		asrs r0, r0, # 6
 2331 12ee 8911     		asrs r1, r1, # 6
 2332 12f0 9211     		asrs r2, r2, # 6
 2333 12f2 9B11     		asrs r3, r3, # 6
 2334 12f4 8018     		adds r0, r0, r2  @r
 2335 12f6 C918     		adds r1, r1, r3  @i
 2336 12f8 3618     		adds r6, r6, r0
 2337 12fa 7F18     		adds r7, r7, r1
 2338              	
 2339 12fc DD46     		mov sp, r11
 2340 12fe 0FBC     		pop {r0-r3}
 2341 1300 EB46     		mov r11, sp
 2342 1302 D546     		mov sp, r10
 2343 1304 10BC     		pop {r4}
 2344 1306 EA46     		mov r10, sp
 2345 1308 2546     		mov r5, r4
 2346 130a 2404     		lsls r4, r4, # 16
 2347 130c 240C     		lsrs r4, r4, # 16
 2348 130e 2D0C     		lsrs r5, r5, # 16
 2349 1310 6043     		muls r0, r0, r4
 2350 1312 6143     		muls r1, r1, r4
 2351 1314 6A43     		muls r2, r2, r5
 2352 1316 6B43     		muls r3, r3, r5
 2353 1318 8011     		asrs r0, r0, # 6
 2354 131a 8911     		asrs r1, r1, # 6
 2355 131c 9211     		asrs r2, r2, # 6
 2356 131e 9B11     		asrs r3, r3, # 6
 2357 1320 8018     		adds r0, r0, r2         @r
 2358 1322 C918     		adds r1, r1, r3         @i
 2359 1324 3618     		adds r6, r6, r0
 2360 1326 7F18     		adds r7, r7, r1
 2361              	
 2362              		@12
 2363 1328 DD46     		mov sp, r11
 2364 132a 0FBC     		pop {r0-r3}
 2365 132c EB46     		mov r11, sp
 2366 132e D546     		mov sp, r10
 2367 1330 10BC     		pop {r4}
 2368 1332 EA46     		mov r10, sp
 2369 1334 2546     		mov r5, r4
 2370 1336 2404     		lsls r4, r4, # 16
 2371 1338 240C     		lsrs r4, r4, # 16
ARM GAS  1.s 			page 43


 2372 133a 2D0C     		lsrs r5, r5, # 16
 2373 133c 6043     		muls r0, r0, r4         @R
 2374 133e 6143     		muls r1, r1, r4         @I
 2375 1340 6A43     		muls r2, r2, r5         @R
 2376 1342 6B43     		muls r3, r3, r5         @I
 2377 1344 8011     		asrs r0, r0, # 6
 2378 1346 8911     		asrs r1, r1, # 6
 2379 1348 9211     		asrs r2, r2, # 6
 2380 134a 9B11     		asrs r3, r3, # 6
 2381 134c 8018     		adds r0, r0, r2  @r
 2382 134e C918     		adds r1, r1, r3  @i
 2383 1350 3618     		adds r6, r6, r0
 2384 1352 7F18     		adds r7, r7, r1
 2385              	
 2386 1354 DD46     		mov sp, r11
 2387 1356 0FBC     		pop {r0-r3}
 2388 1358 EB46     		mov r11, sp
 2389 135a D546     		mov sp, r10
 2390 135c 10BC     		pop {r4}
 2391 135e EA46     		mov r10, sp
 2392 1360 2546     		mov r5, r4
 2393 1362 2404     		lsls r4, r4, # 16
 2394 1364 240C     		lsrs r4, r4, # 16
 2395 1366 2D0C     		lsrs r5, r5, # 16
 2396 1368 6043     		muls r0, r0, r4
 2397 136a 6143     		muls r1, r1, r4
 2398 136c 6A43     		muls r2, r2, r5
 2399 136e 6B43     		muls r3, r3, r5
 2400 1370 8011     		asrs r0, r0, # 6
 2401 1372 8911     		asrs r1, r1, # 6
 2402 1374 9211     		asrs r2, r2, # 6
 2403 1376 9B11     		asrs r3, r3, # 6
 2404 1378 8018     		adds r0, r0, r2         @r
 2405 137a C918     		adds r1, r1, r3         @i
 2406 137c 3618     		adds r6, r6, r0
 2407 137e 7F18     		adds r7, r7, r1
 2408              	
 2409              	
 2410              		@	bkpt # 1
 2411 1380 0A48     		ldr r0, = dianyabiao
 2412 1382 0B49     		ldr r1, = 0x7d0
 2413 1384 4018     		adds r0, r0, r1
 2414 1386 8245     		cmp r10, r0
 2415 1388 05D0     		beq __dft_fanhuile
 2416 138a 0A48     		ldr r0, = cossin
 2417 138c 0068     		ldr r0, [r0]
 2418 138e 8346     		mov r11, r0
 2419 1390 0948     		ldr r0, = __dft_xunhuan
 2420 1392 0130     		adds r0, r0, # 1
 2421 1394 8746     		mov pc, r0
 2422              		@	b __dft_xunhuan
 2423              	__dft_fanhuile:
 2424 1396 3046     		mov r0, r6
 2425 1398 3946     		mov r1, r7
 2426 139a 4012     		asrs r0, r0, # 9	@dfdf
 2427 139c 4912     		asrs r1, r1, # 9
 2428 139e E546     		mov sp, r12
ARM GAS  1.s 			page 44


 2429 13a0 1CBC     		pop {r2-r4}
 2430 13a2 9246     		mov r10, r2
 2431 13a4 9B46     		mov r11, r3
 2432 13a6 A446     		mov r12, r4
 2433 13a8 FCBD     		pop {r2-r7,pc}
 2434 13aa 00006001 		.ltorg
 2434      0020D007 
 2434      0000F40F 
 2434      0020E80A 
 2434      0000
 2435              	
 2436              	__lv_bo_qi:
 2437              		@地址顺序：指针，累加值，缓冲区
 2438              		@入口R0=缓冲区，R1=数据, r2,=指针
 2439              		@出口R0
 2440 13bc F8B5     		push {r3-r7,lr}
 2441 13be 0B4C     		ldr r4, = lvbo_changdu
 2442 13c0 0B4F     		ldr r7, = lvbo_youyi
 2443 13c2 2468     		ldr r4, [r4]
 2444 13c4 3F68     		ldr r7, [r7]
 2445 13c6 1568     		ldr r5, [r2]
 2446 13c8 2B46     		mov r3, r5
 2447 13ca AB00     		lsls r3, r5, # 2
 2448 13cc C658     		ldr r6, [r0, r3]
 2449 13ce C150     		str r1, [r0, r3]
 2450 13d0 0135     		adds r5, r5, # 1
 2451 13d2 1560     		str r5, [r2]
 2452 13d4 A542     		cmp r5, r4
 2453 13d6 01D1     		bne __huanchong_leijia
 2454 13d8 0025     		movs r5, # 0
 2455 13da 1560     		str r5, [r2]
 2456              	__huanchong_leijia:
 2457 13dc 0438     		subs r0, r0, # 4
 2458 13de 0568     		ldr r5, [r0]
 2459 13e0 4919     		adds r1, r1, r5
 2460 13e2 891B     		subs r1, r1, r6
 2461 13e4 0160     		str r1, [r0]
 2462 13e6 3941     		asrs r1, r1, r7	 @# 12 @12 @  7	@128
 2463 13e8 0846     		mov r0, r1
 2464 13ea F8BD     		pop {r3-r7,pc}
 2465 13ec F00F0020 		.ltorg
 2465      EC0F0020 
 2466              	__ji_suan_fu_du:		    @ 计算幅度
 2467              		@ 入r0= 实部，r1= 虚部
 2468              		@ 出r0 = 幅度
 2469              		@ Mag ~=Alpha * max(|I|, |Q|) + Beta * min(|I|, |Q|)
 2470              		@ Alpha * Max + Beta * Min
 2471 13f4 0EB5     		push {r1-r3,lr}
 2472 13f6 0000     		movs r0, r0
 2473 13f8 01D5     		bpl _shibubushifushu
 2474 13fa C043     		mvns r0, r0                             @ 是负数转成正数
 2475 13fc 0130     		adds r0, r0, # 1
 2476              	_shibubushifushu:		                               @ 实部不是负数
 2477 13fe 0900     		movs r1, r1
 2478 1400 01D5     		bpl _xububushifushu
 2479 1402 C943     		mvns r1, r1                             @ 是负数转成正数
 2480 1404 0131     		adds r1, r1, # 1
ARM GAS  1.s 			page 45


 2481              	_xububushifushu:		                                @ 虚部不是负数
 2482 1406 0028     		cmp r0, # 0
 2483 1408 01D1     		bne _panduanxubushibushi0
 2484 140a 0846     		mov r0, r1
 2485 140c 0EBD     		pop {r1-r3,pc}
 2486              	_panduanxubushibushi0:
 2487 140e 0029     		cmp r1, # 0
 2488 1410 00D1     		bne _jisuanfudu1
 2489 1412 0EBD     		pop {r1-r3,pc}
 2490              	_jisuanfudu1:
 2491 1414 374A     		ldr r2, = 31066		@ Alpha q15 0.948059448969
 2492 1416 384B     		ldr r3, = 12867		@ Beta q15 0.392699081699
 2493 1418 8142     		cmp r1, r0
 2494 141a 06D8     		bhi _alpha_min_beta_max
 2495              	_alpha_max_beta_min:
 2496 141c 5043     		muls r0, r0, r2
 2497 141e 5943     		muls r1, r1, r3
 2498 1420 C013     		asrs r0, r0, # 15
 2499 1422 C913     		asrs r1, r1, # 15
 2500 1424 4018     		adds r0, r0, r1
 2501 1426 0121     		movs r1, # 1
 2502 1428 0EBD     		pop {r1-r3,pc}
 2503              	_alpha_min_beta_max:
 2504 142a 5843     		muls r0, r0, r3
 2505 142c 5143     		muls r1, r1, r2
 2506 142e C013     		asrs r0, r0, # 15
 2507 1430 C913     		asrs r1, r1, # 15
 2508 1432 4018     		adds r0, r0, r1
 2509 1434 0021     		movs r1, # 0
 2510 1436 0EBD     		pop {r1-r3,pc}
 2511              	
 2512              	
 2513              		
 2514              	__jishu:
 2515 1438 06B4     		push {r1-r2}
 2516 143a 304A     		ldr r2, = 10000
 2517 143c 3049     		ldr r1, = jishu
 2518 143e 0868     		ldr r0, [r1]
 2519 1440 0130     		adds r0, r0, # 1
 2520 1442 0860     		str r0, [r1]
 2521 1444 9042     		cmp r0, r2
 2522 1446 01D1     		bne __jisuan_fanhui
 2523 1448 0020     		movs r0, # 0
 2524 144a 0860     		str r0, [r1]
 2525              	__jisuan_fanhui:
 2526 144c 06BC     		pop {r1-r2}
 2527 144e 7047     		bx lr
 2528              	
 2529              	_zhuanshumaguanma:	@ 16进制转数码管码
 2530              		@ R0要转的数据, r1小数点位置
 2531 1450 FCB5     		push {r2-r7,lr}
 2532 1452 4346     		mov r3, r8
 2533 1454 08B4     		push {r3}
 2534 1456 8846     		mov r8, r1
 2535 1458 2A4A     		ldr r2, = shumaguanma
 2536 145a 2B4F     		ldr r7, = shumaguanmabiao
 2537 145c 0546     		mov r5, r0
ARM GAS  1.s 			page 46


 2538 145e 0423     		movs r3, # 4 @长度
 2539 1460 1E46     		mov r6, r3
 2540 1462 0A21     		movs r1, # 10
 2541              	_xunhuanqiuma:
 2542 1464 00F032F8 		bl _chufa
 2543 1468 0446     		mov r4, r0
 2544 146a 4C43     		muls r4, r1
 2545 146c 2B1B     		subs r3, r5, r4
 2546 146e FC5C     		ldrb r4, [r7, r3]
 2547 1470 4645     		cmp r6, r8
 2548 1472 00D0     		beq __tian_jia_xiao_shu_dian
 2549 1474 00E0     		b __bao_cun_shu_ma_guan_ma
 2550              	__tian_jia_xiao_shu_dian:
 2551 1476 803C     		subs r4, r4, # 0x80
 2552              	__bao_cun_shu_ma_guan_ma:
 2553 1478 1470     		strb r4, [r2]
 2554 147a 0546     		mov r5, r0
 2555 147c 0132     		adds r2, r2, # 1
 2556 147e 013E     		subs r6, # 1
 2557 1480 F0D1     		bne _xunhuanqiuma
 2558 1482 08BC     		pop {r3}
 2559 1484 9846     		mov r8, r3
 2560 1486 FCBD     		pop {r2-r7,pc}
 2561              	_xieshumaguan:	 @ 
 2562 1488 7FB5     		push {r0-r6,lr}
 2563 148a 0026     		movs r6, # 0
 2564 148c 1D4D     		ldr r5, = shumaguanma
 2565 148e 1F49     		ldr r1, = danwei
 2566 1490 0968     		ldr r1, [r1]
 2567 1492 0902     		lsls r1, r1, # 8
 2568 1494 1E4A     		ldr r2, = shumaguanshuaxinbiao
 2569              	_shumaguanshuaxin:
 2570 1496 AB5D     		ldrb r3, [r5, r6]
 2571 1498 945D     		ldrb r4, [r2, r6]
 2572 149a 2402     		lsls r4, r4, # 8
 2573 149c 1C43     		orrs r4, r4, r3
 2574 149e 6418     		adds r4, r4, r1
 2575 14a0 2046     		mov r0, r4
 2576 14a2 00F004F8 		bl __xie_spi
 2577 14a6 0136     		adds  r6, r6, # 1
 2578 14a8 042E     		cmp r6, # 4
 2579 14aa F4D1     		bne _shumaguanshuaxin
 2580              		
 2581 14ac 7FBD     		pop {r0-r6,pc}
 2582              	
 2583              		
 2584              	__xie_spi: @ r0=16位
 2585 14ae 1EB5     		push {r1-r4,lr}
 2586 14b0 184A     		ldr r2, = 0x40013000
 2587              	__spi_mang:
 2588 14b2 9168     		ldr r1, [r2,0x08]
 2589 14b4 0906     		lsls r1, r1, # 24
 2590 14b6 FCD4     		bmi __spi_mang
 2591 14b8 9081     		strh r0, [r2,0x0c]
 2592              	
 2593 14ba 1748     		ldr r0, = 0x50000018
 2594 14bc 1021     		movs r1, # 0x10
ARM GAS  1.s 			page 47


 2595 14be 0160     		str r1, [r0]
 2596 14c0 164A     		ldr r2, = 0xff
 2597              	__pa4_yanshi:
 2598 14c2 013A     		subs r2, r2, # 1
 2599 14c4 FDD1     		bne __pa4_yanshi
 2600 14c6 0904     		lsls r1, r1, # 16
 2601 14c8 0160     		str r1, [r0]
 2602 14ca 1EBD     		pop {r1-r4,pc}
 2603              		
 2604              		
 2605              	_chufa:					@软件除法
 2606              		@ r0 除以 r1 等于 商(r0)
 2607 14cc 1EB5     		push {r1-r4,lr}
 2608 14ce 0028     		cmp r0, # 0
 2609 14d0 0ED0     		beq _chufafanhui
 2610 14d2 0029     		cmp r1, # 0
 2611 14d4 0CD0     		beq _chufafanhui
 2612 14d6 0246     		mov r2, r0
 2613 14d8 0123     		movs r3, # 1
 2614 14da DB07     		lsls r3, r3, # 31
 2615 14dc 0020     		movs r0, # 0
 2616 14de 0446     		mov r4, r0
 2617              	_chufaxunhuan:
 2618 14e0 5200     		lsls r2, r2, # 1
 2619 14e2 6441     		adcs r4, r4, r4
 2620 14e4 8C42     		cmp r4, r1
 2621 14e6 01D3     		bcc _chufaweishubudao0
 2622 14e8 C018     		adds r0, r0, r3
 2623 14ea 641A     		subs r4, r4, r1
 2624              	_chufaweishubudao0:
 2625 14ec 5B08     		lsrs r3, r3, # 1
 2626 14ee F7D1     		bne _chufaxunhuan
 2627              	_chufafanhui:
 2628 14f0 1EBD     		pop {r1-r4,pc}
 2629 14f2 00005A79 		.ltorg
 2629      00004332 
 2629      00001027 
 2629      0000D40F 
 2629      0020FC0F 
 2630              	
 2631              	
 2632              		
 2633              	_nmi_handler:
 2634 1520 7047     		bx lr
 2635              	_hard_fault:
 2636 1522 7047     		bx lr
 2637              	_svc_handler:
 2638 1524 7047     		bx lr
 2639              	_pendsv_handler:
 2640 1526 7047     		bx lr
 2641              	_systickzhongduan:		@syzd
 2642 1528 1FB5     		push {r0-r4,lr}
 2643              	__suan_dft:
 2644 152a FFF7BAFA 		bl __dft
 2645 152e 154A     		ldr r2, = shangbi_rr
 2646 1530 154B     		ldr r3, = shangbi_ii
 2647 1532 1060     		str r0, [r2]
ARM GAS  1.s 			page 48


 2648 1534 1960     		str r1, [r3]
 2649 1536 0446     		mov r4, r0
 2650 1538 144A     		ldr r2, = lvboqizhizhen1
 2651 153a 1548     		ldr r0, =lvboqihuanchong1
 2652 153c FFF73EFF 		bl __lv_bo_qi
 2653 1540 1449     		ldr r1, = shangbi_i
 2654 1542 0860     		str r0, [r1]
 2655 1544 2146     		mov r1, r4
 2656 1546 144A     		ldr r2, = lvboqizhizhen
 2657 1548 1448     		ldr r0, =lvboqihuanchong
 2658 154a FFF737FF 		bl __lv_bo_qi
 2659 154e 1449     		ldr r1, = shangbi_r
 2660 1550 0860     		str r0, [r1]
 2661              	
 2662 1552 1348     		ldr r0, = shangbi_r
 2663 1554 0F49     		ldr r1, = shangbi_i
 2664 1556 0068     		ldr r0, [r0]
 2665 1558 0968     		ldr r1, [r1]
 2666 155a FFF74BFF 		bl __ji_suan_fu_du
 2667 155e 114A     		ldr r2, = fudu
 2668 1560 1060     		str r0, [r2]
 2669              	
 2670 1562 1148     		ldr r0, = liangcheng
 2671 1564 114A     		ldr r2, = 0x50000400
 2672 1566 0368     		ldr r3, [r0]
 2673 1568 012B     		cmp r3, # 1
 2674 156a 03D0     		beq __haoou_dang
 2675              	__ou_dang:	
 2676 156c 0123     		movs r3, # 1
 2677 156e 1B04     		lsls r3, r3, # 16
 2678 1570 9361     		str r3, [r2, # 0x18]
 2679 1572 01E0     		b __systick_fanhui
 2680              	__haoou_dang:	
 2681 1574 0123     		movs r3, # 1
 2682 1576 9361     		str r3, [r2, # 0x18]
 2683              		
 2684              	__systick_fanhui:
 2685 1578 0D48     		ldr r0, = 0xe0000d04
 2686 157a 0E49     		ldr r1, = 0x02000000
 2687 157c 0160     		str r1, [r0]                 @ 清除SYSTICK中断
 2688 157e 1FBD     		pop {r0-r4,pc}
 2689              		
 2690              	aaa:
 2691 1580 7047     		bx lr
 2692 1582 0000DC0F 		.ltorg
 2692      0020E00F 
 2692      0020600C 
 2692      0020680C 
 2692      0020E80F 
 2693              		
 2694 15b8 C046C046 		.align 4
 2694      C046C046 
 2695              	        .equ f_chuchang_r,                0x8000008
 2696              		.equ f_chuchang_i,                0x800000c
 2697              		.equ f_jiaodu_r,                  0x8000010
 2698              		.equ f_jiaodu_i,                  0x8000014
 2699              		.equ f_r,                         0x8000018
ARM GAS  1.s 			page 49


 2700              		.equ f_mr,                        0x800001c
 2701              		
 2702              		.equ dianyabiao,        	0x20000160
 2703              		.equ STACKINIT,         	0x20000160
 2704              		.equ lvboqizhizhen,             0x20000930
 2705              		.equ lvboqihuanchong,           0x20000938
 2706              		.equ lvboqizhizhen1,            0x20000c60
 2707              		.equ lvboqihuanchong1,          0x20000c68
 2708              	
 2709              	
 2710              	
 2711              	
 2712              	
 2713              		
 2714              		.equ chuchang_r,		0x20000fa4
 2715              		.equ chuchang_i,		0x20000fa8
 2716              		.equ jiaodu_r,			0x20000fac
 2717              		.equ jiaodu_i,			0x20000fb0
 2718              		.equ r,				0x20000fb4
 2719              		.equ mr,			0x20000fb8
 2720              		.equ jiaozhun_bianhao,		0x20000fbc
 2721              		.equ z_r,			0x20000fc0
 2722              		.equ z_i,			0x20000fc4
 2723              		.equ jiaodu,			0x20000fc8
 2724              		.equ liangcheng,		0x20000fcc
 2725              		.equ qiwang_jiaodu,		0x20000fd0
 2726              		.equ jishu,			0x20000fd4
 2727              		.equ fudu,			0x20000fd8
 2728              		.equ shangbi_rr,		0x20000fdc
 2729              		.equ shangbi_ii,		0x20000fe0
 2730              		.equ shangbi_r,			0x20000fe4
 2731              		.equ shangbi_i,			0x20000fe8
 2732              		.equ lvbo_youyi,		0x20000fec
 2733              		.equ lvbo_changdu,		0x20000ff0
 2734              		.equ cossin,                    0x20000ff4
 2735              		.equ danwei,                    0x20000ff8
 2736              		.equ shumaguanma,               0x20000ffc
 2737              		
 2738              	an_jian_biao:
 2739 15c0 F5020000 		.word __anjian0	+1
 2740 15c4 C5030000 		.word __anjian1	+1
 2741 15c8 05040000 		.word __anjian2	+1
 2742 15cc 25040000 		.word __anjian3	+1
 2743              	cordic_yong_atan_biao:		@弧度
 2744 15d0 87640000 		.int 0x00006487,0x00003B58,0x00001F5B,0x00000FEA,0x000007FD,0x000003FF,0x000001FF,0x000000FF,0x000
 2744      583B0000 
 2744      5B1F0000 
 2744      EA0F0000 
 2744      FD070000 
 2745              	cordic_yong_cos_sin:
 2746 1610 00000000 		.int 0x0000,0x4000,0x2D41,0x2D41,0x3B20,0x187D,0x3EC5,0x0C7C,0x3FB1,0x0645,0x3FEC,0x0323,0x3FFB,0x
 2746      00400000 
 2746      412D0000 
 2746      412D0000 
 2746      203B0000 
 2747              	atan_biao:		@角度
 2748 1690 00801600 		.int 0x00168000,0x000D4853,0x000704A3,0x00039000,0x0001C9C5,0x0000E51B,0x00007295,0x0000394B,0x000
ARM GAS  1.s 			page 50


 2748      53480D00 
 2748      A3040700 
 2748      00900300 
 2748      C5C90100 
 2749 16e4 C046C046 		.align 4
 2749      C046C046 
 2749      C046C046 
 2750              	xiaoshudian_weizhi:
 2751 16f0 0102     		.byte 1,2
 2752 16f2 C046C046 		.align 4
 2752      C046C046 
 2752      C046C046 
 2752      C046
 2753              	chuchang_dianzu:
 2754 1700 D41B0000 		.int 7124,20591		@2欧=7124 58毫欧=20591
 2754      6F500000 
 2755              	chuchang_jiaodu:
 2756 1708 8FF1FFFF 		.int -3697,32558
 2756      2E7F0000 
 2757              	chuchang_duanlu_r:
 2758 1710 00000000 		.int 0,0
 2758      00000000 
 2759 1718 C046C046 		.align 4
 2759      C046C046 
 2760              	danwei_biao:
 2761 1720 4080     		.byte 0x40,0x80
 2762 1722 C046C046 		.align 4
 2762      C046C046 
 2762      C046C046 
 2762      C046
 2763              	yjmwxwx:
 2764 1730 796A6D77 		.ascii "yjmwxwx-20230729"
 2764      7877782D 
 2764      32303233 
 2764      30373239 
 2765              		.align 4
 2766              	p0:
 2767 1740 C0C0BF8C 		.int 0x8cbfc0c0
 2768              	p1:
 2769 1744 F9C0BF8C 		.int 0x8cbfc0f9
 2770              	p2:
 2771 1748 A4C0BF8C 		.int 0x8cbfc0a4
 2772              	wan:
 2773 174c A1AB86FF 		.int 0xff86aba1 
 2774              		.align 4
 2775              	jiaozhun_biao:
 2776 1750 B3040000 		.word __qingling +1
 2777 1754 4F050000 		.word __xiangwei +1
 2778 1758 0B060000 		.word __z_r	 +1
 2779              		
 2780 175c C046C046 		.align 4
 2781              	zheng_xian_1khz:
 2782 1760 7D808488 		.byte 125,128,132,136,140,144,148,152,155,159,163,167,170,174,178,181,184,188,191,194,198,201,204,
 2782      8C909498 
 2782      9B9FA3A7 
 2782      AAAEB2B5 
 2782      B8BCBFC2 
ARM GAS  1.s 			page 51


 2783              		
 2784 1828 C046C046 		.align 4
 2784      C046C046 
 2785              	shumaguanmabiao:
 2786 1830 C0F9A4B0 		.byte 0xc0,0xf9,0xa4,0xb0,0x99,0x92,0x82,0xf8,0x80,0x90
 2786      999282F8 
 2786      8090
 2787 183a C046C046 		.align 4
 2787      C046
 2788              	shumaguanshuaxinbiao:
 2789 1840 10080402 		.byte 0x10,0x08,0x04,0x02
 2790 1844 C046C046 		.align 4
 2790      C046C046 
 2790      C046C046 
 2791              	cos_sin_biao_1k:
 2792 1850 00800000 		.int 0x8000,0x0000,0x7FBF,0xFFFFF7F7,0x7EFD,0xFFFFEFF6,0x7DBB,0xFFFFE804,0x7BFA,0xFFFFE02B,0x79BC,
 2792      00000000 
 2792      BF7F0000 
 2792      F7F7FFFF 
 2792      FD7E0000 
 2793              		
ARM GAS  1.s 			page 52


DEFINED SYMBOLS
                 1.s:8      .text:00000000 vectors
                            *ABS*:20000160 STACKINIT
                 1.s:124    .text:000001c0 _start
                 1.s:2637   .text:00001524 _svc_handler
                 1.s:2639   .text:00001526 _pendsv_handler
                 1.s:2641   .text:00001528 _systickzhongduan
                 1.s:2690   .text:00001580 aaa
                 1.s:73     .text:00000100 xiang_liang_biao
                 1.s:2633   .text:00001520 _nmi_handler
                 1.s:2635   .text:00001522 _hard_fault
                            .text:00000000 $d
                 1.s:126    .text:000001c0 $t
                 1.s:132    .text:000001c6 shizhong
                 1.s:143    .text:000001da denghse
                 1.s:155    .text:000001ec dengpll
                 1.s:162    .text:000001f6 _neicunqingling
                 1.s:166    .text:000001fc _neicunqinglingxunhuan
                 1.s:172    .text:00000204 __wai_she_shi_zhong
                 1.s:197    .text:0000021c __io_she_zhi
                 1.s:238    .text:0000023c spi_chushihua
                 1.s:245    .text:00000246 __adc_dma
                 1.s:256    .text:00000258 _adcchushihua
                 1.s:260    .text:0000025e _dengadcjiaozhun
                 1.s:264    .text:00000264 _tongdaoxuanze
                            *ABS*:20000ff0 lvbo_changdu
                            *ABS*:20000fec lvbo_youyi
                            *ABS*:20000ff4 cossin
                 1.s:2791   .text:00001850 cos_sin_biao_1k
                 1.s:341    .text:000002c6 __huifu_chuchang
                 1.s:364    .text:000002f4 __tiaoguo_chuchang_chushihua
                 1.s:2753   .text:00001700 chuchang_dianzu
                            *ABS*:20000fa4 chuchang_r
                 1.s:797    .text:0000073a __xie_flash
                 1.s:370    .text:000002f4 __anjian0
                 1.s:767    .text:000006b4 ting
                 1.s:372    .text:000002f6 $d
                 1.s:372    .text:000002f8 $d
                 1.s:373    .text:000003c4 __anjian1
                 1.s:374    .text:000003c4 __dangwei_jia_deng_songshou
                 1.s:1219   .text:00000a96 __an_jian
                 1.s:375    .text:000003c4 $t
                 1.s:418    .text:00000424 __anjian3
                 1.s:387    .text:000003e2 __dangwei_jia_le
                 1.s:930    .text:0000087c __xiangwei_xuanzhuan
                            *ABS*:20000fc0 z_r
                            *ABS*:08000018 f_r
                            *ABS*:08000008 f_chuchang_r
                 1.s:1175   .text:00000a46 __xianshi_neizu
                            *ABS*:20000fcc liangcheng
                 1.s:397    .text:000003f2 __anjian1_fanhui
                 1.s:758    .text:000006a8 __ren_wu_diao_du
                 1.s:399    .text:000003f4 $d
                 1.s:401    .text:00000404 __anjian2
                 1.s:402    .text:00000404 __xianshi_jiaodu
                            *ABS*:20000fc8 jiaodu
                 1.s:403    .text:00000404 $t
ARM GAS  1.s 			page 53


                            *ABS*:20000fe4 shangbi_r
                            *ABS*:20000fe8 shangbi_i
                 1.s:1061   .text:00000956 __atan2_ji_suan
                            *ABS*:20000fd0 qiwang_jiaodu
                 1.s:2529   .text:00001450 _zhuanshumaguanma
                 1.s:2561   .text:00001488 _xieshumaguan
                 1.s:464    .text:0000047e __xianshi_jiaozhun_caidan
                 1.s:425    .text:00000434 __anjian3_xunhuan
                 1.s:433    .text:00000446 __jiaozhun_caidan_jia_deng_songshou
                 1.s:476    .text:00000494 __jinru_jiaozhun_caidan_deng_songshou
                 1.s:452    .text:0000046a __tiaochu_anjian3
                 1.s:441    .text:00000458 __jiaozhun_caidan_jia_le
                            *ABS*:20000fbc jiaozhun_bianhao
                 1.s:450    .text:00000468 __anjian3_fanhui
                 1.s:454    .text:0000046c __yy1
                 1.s:2772   .text:0000174c wan
                            *ABS*:20000ffc shumaguanma
                 1.s:2766   .text:00001740 p0
                 1.s:485    .text:000004a6 __jinru_jiaozhun_caidan
                 1.s:2775   .text:00001750 jiaozhun_biao
                 1.s:493    .text:000004b2 __qingling
                 1.s:777    .text:00000718 __du_jiaozhunbiao
                 1.s:498    .text:000004bc __duanlu_qingling
                 1.s:565    .text:0000053a __duanlu_qingling_xianshi
                 1.s:506    .text:000004ce __qingling_jia
                 1.s:523    .text:000004f0 __qingling_jian
                 1.s:541    .text:00000512 __qingling_baocun
                 1.s:514    .text:000004e0 __qingling_jiale
                            *ABS*:20000fb4 r
                 1.s:531    .text:00000502 __qingling_jianle
                 1.s:548    .text:0000051e __duanlu_qingling_wan
                 1.s:553    .text:00000524 __yy
                 1.s:575    .text:0000054e __xiangwei
                 1.s:581    .text:00000558 __shezhi_jiaodu
                 1.s:646    .text:000005da __shezhi_jiaodu_xianshi
                 1.s:589    .text:0000056a __jiaodu_jia
                 1.s:603    .text:00000586 __jiaodu_jian
                 1.s:618    .text:000005a2 __jiaodu_shezhi_wan
                 1.s:597    .text:0000057c __jiaodu_jiale
                 1.s:611    .text:00000598 __jiaodu_jianle
                 1.s:957    .text:000008ac __jisuan_cos_sin
                            *ABS*:20000fac jiaodu_r
                            *ABS*:20000fb0 jiaodu_i
                 1.s:634    .text:000005c4 __yy2
                            *ABS*:20000ff8 danwei
                 1.s:665    .text:000005fe __xian_shi_jiao_du
                 1.s:671    .text:0000060a __z_r
                 1.s:676    .text:00000614 __shezhi_z_r
                 1.s:743    .text:00000692 __shezhi_z_r_xianshi
                 1.s:684    .text:00000626 __shezhi_z_r_jia
                 1.s:701    .text:00000648 __shezhi_z_r_jian
                 1.s:719    .text:0000066a __shezhi_z_r_baocun
                 1.s:692    .text:00000638 __shezhi_z_r_jiale
                 1.s:709    .text:0000065a __shezhi_z_r_jianle
                 1.s:726    .text:00000676 __shezhi_z_r_wan
                 1.s:731    .text:0000067c __yy3
                 1.s:2738   .text:000015c0 an_jian_biao
ARM GAS  1.s 			page 54


                 1.s:775    .text:000006c6 $d
                 1.s:775    .text:000006c8 $d
                 1.s:778    .text:00000718 $t
                 1.s:811    .text:00000754 __deng_shizhong
                 1.s:921    .text:00000824 __flash_mang
                 1.s:889    .text:000007ea __xie_flash_xunhuan
                 1.s:897    .text:000007fa __xie_flash_xunhuan1
                 1.s:929    .text:00000832 $d
                 1.s:929    .text:00000834 $d
                 1.s:931    .text:0000087c $t
                            *ABS*:08000010 f_jiaodu_r
                            *ABS*:08000014 f_jiaodu_i
                            *ABS*:20000fc4 z_i
                 1.s:967    .text:000008ba __xiaoyu_180
                 1.s:969    .text:000008bc __js_cos_sin
                 1.s:978    .text:000008cc __jisuan_jiaodu_bushi0
                 1.s:980    .text:000008ce __jiance_chao90
                 1.s:987    .text:000008da __xiaoyu_90
                 1.s:989    .text:000008dc __suan_cossin
                 1.s:2605   .text:000014cc _chufa
                 1.s:1000   .text:000008f4 __suan_cos_sin1
                 1.s:1015   .text:0000090e __cordic_cos_sin
                 1.s:1006   .text:00000900 __cos_sin_fanhui
                 1.s:1013   .text:0000090c __cossin_fh
                 1.s:1029   .text:0000091e cordicxunhuan
                 1.s:2743   .text:000015d0 cordic_yong_atan_biao
                 1.s:2745   .text:00001610 cordic_yong_cos_sin
                 1.s:1074   .text:0000096c __cordic_atan2_xun_huan
                 1.s:1075   .text:0000096c __du_cos_sin
                 1.s:1095   .text:00000990 __ni_shi_zhen_zhuan
                 1.s:1088   .text:00000984 __shun_shi_zhen_zhuan
                 1.s:1101   .text:0000099a __xuan_zhuan_wan
                 1.s:1120   .text:000009bc $d
                 1.s:1123   .text:000009f0 __suan_atan2
                 1.s:1126   .text:000009f0 $t
                 1.s:2747   .text:00001690 atan_biao
                 1.s:1137   .text:00000a06 __panduan_xubu
                 1.s:1141   .text:00000a0c __suan_atan2_xunhuan
                 1.s:1155   .text:00000a26 __atan2_zhengzhuan
                 1.s:1166   .text:00000a3a __atan2_xuanzhuan
                 1.s:2760   .text:00001720 danwei_biao
                 1.s:2750   .text:000016f0 xiaoshudian_weizhi
                 1.s:1213   .text:00000a8a __xian_shi_nei_zu
                 1.s:1229   .text:00000aa2 __dft
                            *ABS*:20000160 dianyabiao
                 1.s:1245   .text:00000ae8 __dft_xunhuan
                 1.s:1244   .text:00000abe $d
                 1.s:1244   .text:00000ac0 $d
                 1.s:1247   .text:00000ae8 $t
                 1.s:2423   .text:00001396 __dft_fanhuile
                 1.s:2434   .text:000013aa $d
                 1.s:2434   .text:000013ac $d
                 1.s:2436   .text:000013bc __lv_bo_qi
                 1.s:2440   .text:000013bc $t
                 1.s:2456   .text:000013dc __huanchong_leijia
                 1.s:2465   .text:000013ec $d
                 1.s:2466   .text:000013f4 __ji_suan_fu_du
ARM GAS  1.s 			page 55


                 1.s:2471   .text:000013f4 $t
                 1.s:2476   .text:000013fe _shibubushifushu
                 1.s:2481   .text:00001406 _xububushifushu
                 1.s:2486   .text:0000140e _panduanxubushibushi0
                 1.s:2490   .text:00001414 _jisuanfudu1
                 1.s:2503   .text:0000142a _alpha_min_beta_max
                 1.s:2495   .text:0000141c _alpha_max_beta_min
                 1.s:2514   .text:00001438 __jishu
                            *ABS*:20000fd4 jishu
                 1.s:2525   .text:0000144c __jisuan_fanhui
                 1.s:2785   .text:00001830 shumaguanmabiao
                 1.s:2541   .text:00001464 _xunhuanqiuma
                 1.s:2550   .text:00001476 __tian_jia_xiao_shu_dian
                 1.s:2552   .text:00001478 __bao_cun_shu_ma_guan_ma
                 1.s:2788   .text:00001840 shumaguanshuaxinbiao
                 1.s:2569   .text:00001496 _shumaguanshuaxin
                 1.s:2584   .text:000014ae __xie_spi
                 1.s:2587   .text:000014b2 __spi_mang
                 1.s:2597   .text:000014c2 __pa4_yanshi
                 1.s:2627   .text:000014f0 _chufafanhui
                 1.s:2617   .text:000014e0 _chufaxunhuan
                 1.s:2624   .text:000014ec _chufaweishubudao0
                 1.s:2629   .text:000014f2 $d
                 1.s:2629   .text:000014f4 $d
                 1.s:2634   .text:00001520 $t
                 1.s:2643   .text:0000152a __suan_dft
                            *ABS*:20000fdc shangbi_rr
                            *ABS*:20000fe0 shangbi_ii
                            *ABS*:20000c60 lvboqizhizhen1
                            *ABS*:20000c68 lvboqihuanchong1
                            *ABS*:20000930 lvboqizhizhen
                            *ABS*:20000938 lvboqihuanchong
                            *ABS*:20000fd8 fudu
                 1.s:2680   .text:00001574 __haoou_dang
                 1.s:2675   .text:0000156c __ou_dang
                 1.s:2684   .text:00001578 __systick_fanhui
                 1.s:2692   .text:00001582 $d
                 1.s:2692   .text:00001584 $d
                 1.s:2694   .text:000015b8 $t
                 1.s:2696   *ABS*:0800000c f_chuchang_i
                 1.s:2700   *ABS*:0800001c f_mr
                 1.s:2715   *ABS*:20000fa8 chuchang_i
                 1.s:2719   *ABS*:20000fb8 mr
                 1.s:2739   .text:000015c0 $d
                 1.s:2749   .text:000016e4 $t
                 1.s:2751   .text:000016f0 $d
                 1.s:2752   .text:000016f2 $t
                 1.s:2754   .text:00001700 $d
                 1.s:2755   .text:00001708 chuchang_jiaodu
                 1.s:2757   .text:00001710 chuchang_duanlu_r
                 1.s:2759   .text:00001718 $t
                 1.s:2761   .text:00001720 $d
                 1.s:2762   .text:00001722 $t
                 1.s:2763   .text:00001730 yjmwxwx
                 1.s:2764   .text:00001730 $d
                 1.s:2767   .text:00001740 $d
                 1.s:2768   .text:00001744 p1
ARM GAS  1.s 			page 56


                 1.s:2770   .text:00001748 p2
                 1.s:2776   .text:00001750 $d
                 1.s:2780   .text:0000175c $t
                 1.s:2781   .text:00001760 zheng_xian_1khz
                 1.s:2782   .text:00001760 $d
                 1.s:2784   .text:00001828 $t
                 1.s:2786   .text:00001830 $d
                 1.s:2787   .text:0000183a $t
                 1.s:2789   .text:00001840 $d
                 1.s:2790   .text:00001844 $t
                 1.s:2792   .text:00001850 $d

NO UNDEFINED SYMBOLS
