ARM GAS  1.s 			page 1


   1              		@@ 单片机PY32F002AF15P6TU
   2              		@定时器
   3              		@时间：2023-04-16
   4              		@编译器：ARM-NONE-EABI
   5              		.thumb
   6              		.syntax unified
   7              		.section .text
   8              	
   9              	vectors:	
  10 0000 F0000020 		.word STACKINIT
  11 0004 C1000000 		.word _start + 1
  12 0008 39030000 		.word _nmi_handler + 1
  13 000c 3B030000 		.word _hard_fault  + 1
  14 0010 00000000 		.word 0
  15 0014 00000000 		.word 0
  16 0018 00000000 		.word 0
  17 001c 00000000 		.word 0
  18 0020 00000000 		.word 0
  19 0024 00000000 		.word 0
  20 0028 00000000 		.word 0
  21 002c 3D030000 		.word _svc_handler +1
  22 0030 00000000 		.word 0
  23 0034 00000000 		.word 0
  24 0038 3F030000 		.word _pendsv_handler +1
  25 003c 41030000 		.word _systickzhongduan +1           @ 15
  26 0040 41030000 		.word aaa +1     @ _wwdg +1          @ 0
  27 0044 41030000 		.word aaa +1     @_pvd +1            @ 1
  28 0048 41030000 		.word aaa +1     @_rtc +1            @ 2
  29 004c 41030000 		.word aaa +1     @_flash +1          @ 3
  30 0050 41030000 		.word aaa +1    @ _rcc + 1           @ 4
  31 0054 41030000 		.word aaa +1      @_exti0_1  +1      @ 5
  32 0058 41030000 		.word aaa +1      @ _exti2_3 +1      @ 6
  33 005c 41030000 		.word aaa +1       @_exti4_15 +1     @ 7
  34 0060 41030000 		.word aaa +1                         @ 8
  35 0064 41030000 		.word aaa +1    @__dma_wan  +1       @ 9
  36 0068 41030000 		.word aaa +1    @_dma1_2_3 +1        @ 10
  37 006c 41030000 		.word aaa +1       @_dma1_4_5 +1     @ 11
  38 0070 41030000 		.word aaa +1     @_adc1 +1           @ 12
  39 0074 41030000 		.word aaa +1       @_tim1_brk_up +1  @ 13
  40 0078 41030000 		.word aaa +1        @ _tim1_cc +1    @ 14
  41 007c 41030000 		.word aaa +1         @_tim2 +1       @ 15
  42 0080 41030000 		.word aaa +1          @_tim3 +1      @ 16
  43 0084 41030000 		.word aaa +1     @LPTIM1               @ 17
  44 0088 41030000 		.word aaa +1                         @ 18
  45 008c 41030000 		.word aaa +1    @_tim14 +1           @ 19
  46 0090 41030000 		.word aaa +1                         @ 20
  47 0094 41030000 		.word aaa +1         @_tim16 +1      @ 21
  48 0098 41030000 		.word aaa +1         @_tim17 +1      @ 22
  49 009c 41030000 		.word aaa +1          @_i2c   +1     @ 23
  50 00a0 41030000 		.word aaa +1                         @ 24
  51 00a4 41030000 		.word aaa +1           @_spi1  +1    @ 25
  52 00a8 41030000 		.word aaa +1           @_spi2  +1    @ 26
  53 00ac 41030000 		.word aaa +1         @_usart1 +1     @ 27
  54 00b0 41030000 		.word aaa +1	@_usart2 +1	     @ 28
  55 00b4 41030000 		.word aaa +1				@29
  56 00b8 41030000 		.word aaa +1	@led			@30
  57 00bc 41030000 		.word aaa +1				@31
ARM GAS  1.s 			page 2


  58              	
  59              	_start:
  60              	@	bkpt # 1
  61              	shizhong:
  62 00c0 6B4A     		ldr r2, = 0x40022000   @FLASH访问控制
  63 00c2 0121     		movs r1, # 1
  64 00c4 1160     		str r1, [r2]          @0:flash没等待，1:flash等待
  65 00c6 6B48     		ldr r0, = 0x40021000 @ rcc
  66 00c8 6B49     		ldr r1, = 0x20008
  67 00ca 0161     		str r1, [r0, # 0x10]	@外部晶振选择
  68 00cc 0168     		ldr r1, [r0]
  69 00ce 6B4A     		ldr r2, = 0x10000
  70 00d0 1143     		orrs r1, r1, r2
  71 00d2 0160     		str r1, [r0]		@开外部振荡器
  72              	denghse:
  73 00d4 0168     		ldr r1, [r0]
  74 00d6 8903     		lsls r1, r1, # 14
  75 00d8 FCD5     		bpl denghse		@等外部振荡器
  76              		
  77 00da 6949     		ldr r1, = 0x01
  78 00dc C160     		str r1, [r0, # 0x0c]	@PLL配置
  79 00de 0268     		ldr r2, [r0]
  80 00e0 6849     		ldr r1, = 0x1000000
  81 00e2 1143     		orrs r1, r1, r2
  82 00e4 0160     		str r1, [r0]		@开PLL
  83              	
  84              	dengpll:
  85 00e6 0168     		ldr r1, [r0]
  86 00e8 8901     		lsls r1, # 6
  87 00ea FCD5     		bpl dengpll		@等PLL
  88 00ec 0221     		movs r1, # 0x02
  89 00ee 8160     		str r1, [r0, # 0x08]	@选择系统时钟
  90              		
  91              	_neicunqingling:
  92 00f0 6548     		ldr r0, = 0x20001000
  93 00f2 664A     		ldr r2, = 0x20000000
  94 00f4 0021     		movs r1, # 0
  95              	_neicunqinglingxunhuan:
  96 00f6 0438     		subs r0, r0, # 4
  97 00f8 0160     		str r1, [r0]
  98 00fa 9042     		cmp r0, r2
  99 00fc FBD1     		bne _neicunqinglingxunhuan
 100              		
 101              	__wai_she_shi_zhong:
 102              		@0x34
 103              		@0=PA、1=PB、5=PF
 104 00fe 5D48     		ldr r0, = 0x40021000
 105 0100 2321     		movs r1, # 0x23
 106 0102 4163     		str r1, [r0, # 0x34]	@IO时钟
 107              		
 108              		@0X38 复位值0x300
 109              		@0=DMA，8=FLASH，12=CRC
 110 0104 6249     		ldr r1, = 0x301
 111 0106 8163     		str r1, [r0, # 0x38]
 112              	
 113              		@0X3C
 114              		@1=TIM3,10=RTC，11=WWDG，14=SPI2,17=USART2,21=I2C，28=PWR，31=LPTIM
ARM GAS  1.s 			page 3


 115              	
 116              		@0X40
 117              		@0SYSCFG，11=TIM1,12=SPI1,14=USART1,15=TIM14,17=TIM16,18=TIM17,20=ADC
 118              		@21=COMP1,22=COMP2,23=LED
 119 0108 6249     		ldr r1, = 0x101801
 120 010a 0164     		str r1, [r0, # 0x40]   
 121 010c 0163     		str r1, [r0, # 0x30]
 122 010e 0021     		movs r1, # 0
 123 0110 0163     		str r1, [r0, # 0x30]
 124              			
 125              	__io_she_zhi:
 126              	@@@@@@@@@@@@@@@@@@@@@@@@@@@@@@@@@@@@@@@@@@@@@@@@@@@@@@@@@@@@@@@@@@@@@@@@@@@@@@@@@@@@@@@	
 127              		@pa=0x50000000,pb=0x50000400,pf=0x50001400
 128              		@0xebffffff	0xffffffff	0xfffffcff
 129              		@00=输入，01=通用输出，10=复用，11=模拟
 130              		@0x04, 0=推挽，1=开漏
 131              		@0x08, 00=非常低，01=低速，10=高速，11=非常高
 132              		@PA=0X0C000000
 133              		@0x0c, 00=无上拉下拉，01=上拉，10=下拉
 134              		@PA=0X24000000,PB=0，PF=0X200
 135              		@0x10=输入数据寄存器
 136              		@0x14=输出数据寄存器
 137              		@0X18，0-15 IO开，16-31 IO关
 138              		@0X28, 0-15 IO关
 139              		@0x20=复用功能低
 140              		@0x24=复用功能高
 141              		@0=AF0, 1=AF1，2=AF2，3=AF3，4=AF4, 5=AF5, 6=AF6, 7=AF7
 142              		@8=AF8, 9=AF9, A=AF10,B=AF11,C=AF12,D=AF13,E=AF14,F=AF15
 143              	@@@@@@@@@@@@@@@@@@@@@@@@@@@@@@@@@@@@@@@@@@@@@@@@@@@@@@@@@@@@@@@@@@@@@@@@@@@@@@@@@@@@
 144 0112 6148     		ldr r0, = 0x50000000
 145 0114 6149     		ldr r1, = 0x28008900
 146 0116 0160     		str r1, [r0]
 147 0118 6149     		ldr r1, = 0x0c000000
 148 011a 8160     		str r1, [r0, # 0x08]
 149 011c 6148     		ldr r0, = 0x50000400
 150 011e 6249     		ldr r1, = 0xffffffbd
 151 0120 0160     		str r1, [r0]
 152 0122 C021     		movs r1, # 0xc0
 153 0124 8160     		str r1, [r0, # 0x08]
 154 0126 6149     		ldr r1, = 0x1000
 155 0128 0162     		str r1, [r0, # 0x20]
 156              	
 157              	
 158 012a 6148     		ldr r0, = 0x40010000
 159 012c 2C21     		movs r1, # 0x2c
 160 012e C161     		str r1, [r0, # 0x1c]
 161              	
 162 0130 6048     		ldr r0, = 0x40020000
 163 0132 6149     		ldr r1, = 0x40012c38	@外设地址
 164 0134 0161     		str r1, [r0, # 0x10]
 165 0136 6149     		ldr r1, =  zheng_xian_1khz @ 储存器地址
 166 0138 4161     		str r1, [r0, # 0x14]
 167 013a 6149     		ldr r1, = 200		@传输数量
 168 013c C160     		str r1, [r0, # 0x0c]
 169 013e 6149     		ldr r1, = 0x31b1  	@传输模式
 170 0140 8160     		str r1, [r0, # 0x08]
 171              	
ARM GAS  1.s 			page 4


 172              	
 173 0142 6148     		ldr r0, = 0x40012c00 @ tim1_cr1
 174 0144 0021     		movs r1, # 0
 175 0146 8162     		str r1, [r0, # 0x28] @ psc
 176 0148 6049     		ldr r1, = 249
 177 014a C162     		str r1, [r0, # 0x2c] @ ARR
 178              		@	movs r1, # 0x20
 179              		@	str r1, [r0, # 0x04] @ TRGO
 180 014c 6049     		ldr r1, = 0x6800
 181 014e 8161     		str r1, [r0, # 0x18] @ ccmr1  CC2
 182 0150 6049     		ldr r1, = 0x10    @  CC3
 183 0152 0162     		str r1, [r0, # 0x20] @ ccer
 184 0154 6049     		ldr r1, = 0x8000
 185 0156 4164     		str r1, [r0, # 0x44] @ BDTR
 186 0158 6049     		ldr r1, = 0x400 @ CC3 DMA
 187 015a C160     		str r1, [r0, # 0x0c] @ DIER
 188 015c 6049     		ldr r1, = 100
 189 015e 8163     		str r1, [r0, # 0x38]
 190 0160 6049     		ldr r1, = 0x81
 191 0162 0160     		str r1, [r0]
 192              	
 193              		@ adc dma
 194 0164 5348     		ldr r0, = 0x40020000
 195 0166 6049     		ldr r1, = 0x40012440	@外设地址
 196 0168 4162     		str r1, [r0, # 0x24]
 197 016a 6049     		ldr r1, = 0x20000100	@储存器地址
 198 016c 8162     		str r1, [r0, # 0x28]
 199 016e 6049     		ldr r1, = 1000		@传输数量
 200 0170 0162     		str r1, [r0, # 0x20]
 201 0172 6049     		ldr r1, = 0x35a1 @  0x583        @ 5a1	@传输模式
 202 0174 C161     		str r1, [r0, # 0x1c]
 203              	_adcchushihua:
 204 0176 6048     		ldr r0, = 0x40012400  @ adc基地址
 205 0178 6049     		ldr r1, = 0x80000000
 206 017a 8160     		str r1, [r0, # 0x08]  @ ADC 控制寄存器 (ADC_CR)  @adc校准
 207              	_dengadcjiaozhun:
 208 017c 8168     		ldr r1, [r0, # 0x08]
 209 017e 0900     		movs r1, r1
 210 0180 FCD4     		bmi _dengadcjiaozhun   @ 等ADC校准
 211              	_tongdaoxuanze:
 212 0182 0321     		movs r1, # 0x03
 213 0184 8162     		str r1, [r0, # 0x28]    @ 通道选择寄存器 (ADC_CHSELR)
 214 0186 5E49     		ldr r1, = 0x2003         @连续0x2003 @触发0x8c3 @ 0xc43         @TIM3 0x8c3 @0x2003 @0x8c3
 215 0188 C160     		str r1, [r0, # 0x0c]    @ 配置寄存器 1 (ADC_CFGR1)
 216 018a 0021     		movs r1, # 0
 217 018c 4161     		str r1, [r0, # 0x14]    @ ADC 采样时间寄存器 (ADC_SMPR)
 218 018e 5D49     		ldr r1, = 0x05         @ 开始转换
 219 0190 8160     		str r1, [r0, # 0x08]    @ 控制寄存器 (ADC_CR)
 220 0192 8160     		str r1, [r0, # 0x08]
 221              	
 222              	
 223              	spi_chushihua:
 224 0194 5C48     		ldr r0, = 0x40013000
 225 0196 5D49     		ldr r1, = 0xf00
 226 0198 4160     		str r1, [r0, # 0x04]
 227 019a 5D49     		ldr r1, = 0xc07c
 228 019c 0160     		str r1, [r0]
ARM GAS  1.s 			page 5


 229              	ting:
 230              		@	ldr r0, = 1234
 231 019e 00F00AF8 		bl __jishu
 232 01a2 FF21     		movs r1, # 0xff
 233 01a4 00F013F8 		bl _zhuanshumaguanma
 234 01a8 00F02DF8 		bl _xieshumaguan
 235 01ac F7E7     		b ting
 236              		
 237 01ae 5948     		ldr r0, = 0xff99
 238 01b0 00F03CF8 		bl __xie_spi
 239 01b4 F3E7     		b ting
 240              		
 241              	__jishu:
 242 01b6 06B4     		push {r1-r2}
 243 01b8 574A     		ldr r2, = 10000
 244 01ba 5849     		ldr r1, = 0x20000ff0
 245 01bc 0868     		ldr r0, [r1]
 246 01be 0130     		adds r0, r0, # 1
 247 01c0 0860     		str r0, [r1]
 248 01c2 9042     		cmp r0, r2
 249 01c4 01D1     		bne __jisuan_fanhui
 250 01c6 0020     		movs r0, # 0
 251 01c8 0860     		str r0, [r1]
 252              	__jisuan_fanhui:
 253 01ca 06BC     		pop {r1-r2}
 254 01cc 7047     		bx lr
 255              	
 256              	_zhuanshumaguanma:	@ 16进制转数码管码
 257              		@ R0要转的数据, r1小数点位置
 258 01ce FCB5     		push {r2-r7,lr}
 259 01d0 4346     		mov r3, r8
 260 01d2 08B4     		push {r3}
 261 01d4 8846     		mov r8, r1
 262 01d6 524A     		ldr r2, = shumaguanma
 263 01d8 524F     		ldr r7, = shumaguanmabiao
 264 01da 0546     		mov r5, r0
 265 01dc 0423     		movs r3, # 4 @长度
 266 01de 1E46     		mov r6, r3
 267 01e0 0A21     		movs r1, # 10
 268              	_xunhuanqiuma:
 269 01e2 00F032F8 		bl _chufa
 270 01e6 0446     		mov r4, r0
 271 01e8 4C43     		muls r4, r1
 272 01ea 2B1B     		subs r3, r5, r4
 273 01ec FC5C     		ldrb r4, [r7, r3]
 274 01ee 4645     		cmp r6, r8
 275 01f0 00D0     		beq __tian_jia_xiao_shu_dian
 276 01f2 00E0     		b __bao_cun_shu_ma_guan_ma
 277              	__tian_jia_xiao_shu_dian:
 278 01f4 803C     		subs r4, r4, # 0x80
 279              	__bao_cun_shu_ma_guan_ma:
 280 01f6 1470     		strb r4, [r2]
 281 01f8 0546     		mov r5, r0
 282 01fa 0132     		adds r2, r2, # 1
 283 01fc 013E     		subs r6, # 1
 284 01fe F0D1     		bne _xunhuanqiuma
 285 0200 08BC     		pop {r3}
ARM GAS  1.s 			page 6


 286 0202 9846     		mov r8, r3
 287 0204 FCBD     		pop {r2-r7,pc}
 288              	_xieshumaguan:	 @ 
 289 0206 7FB5     		push {r0-r6,lr}
 290 0208 0026     		movs r6, # 0
 291 020a 454D     		ldr r5, = shumaguanma
 292 020c 4649     		ldr r1, = danwei
 293 020e 0968     		ldr r1, [r1]
 294 0210 0902     		lsls r1, r1, # 8
 295 0212 464A     		ldr r2, = shumaguanshuaxinbiao
 296              	_shumaguanshuaxin:
 297 0214 AB5D     		ldrb r3, [r5, r6]
 298 0216 945D     		ldrb r4, [r2, r6]
 299 0218 2402     		lsls r4, r4, # 8
 300 021a 1C43     		orrs r4, r4, r3
 301 021c 6418     		adds r4, r4, r1
 302 021e 2046     		mov r0, r4
 303 0220 00F004F8 		bl __xie_spi
 304 0224 0136     		adds  r6, r6, # 1
 305 0226 042E     		cmp r6, # 4
 306 0228 F4D1     		bne _shumaguanshuaxin
 307              		
 308 022a 7FBD     		pop {r0-r6,pc}
 309              	
 310              		
 311              	__xie_spi: @ r0=16位
 312 022c 1EB5     		push {r1-r4,lr}
 313 022e 364A     		ldr r2, = 0x40013000
 314              	__spi_mang:
 315 0230 9168     		ldr r1, [r2,0x08]
 316 0232 0906     		lsls r1, r1, # 24
 317 0234 FCD4     		bmi __spi_mang
 318 0236 9081     		strh r0, [r2,0x0c]
 319              	
 320 0238 3D48     		ldr r0, = 0x50000018
 321 023a 1021     		movs r1, # 0x10
 322 023c 0160     		str r1, [r0]
 323 023e 3D4A     		ldr r2, = 0xff
 324              	__pa4_yanshi:
 325 0240 013A     		subs r2, r2, # 1
 326 0242 FDD1     		bne __pa4_yanshi
 327 0244 0904     		lsls r1, r1, # 16
 328 0246 0160     		str r1, [r0]
 329 0248 1EBD     		pop {r1-r4,pc}
 330              		
 331              		
 332              	_chufa:					@软件除法
 333              		@ r0 除以 r1 等于 商(r0)
 334 024a 1EB5     		push {r1-r4,lr}
 335 024c 0028     		cmp r0, # 0
 336 024e 0ED0     		beq _chufafanhui
 337 0250 0029     		cmp r1, # 0
 338 0252 0CD0     		beq _chufafanhui
 339 0254 0246     		mov r2, r0
 340 0256 0123     		movs r3, # 1
 341 0258 DB07     		lsls r3, r3, # 31
 342 025a 0020     		movs r0, # 0
ARM GAS  1.s 			page 7


 343 025c 0446     		mov r4, r0
 344              	_chufaxunhuan:
 345 025e 5200     		lsls r2, r2, # 1
 346 0260 6441     		adcs r4, r4, r4
 347 0262 8C42     		cmp r4, r1
 348 0264 01D3     		bcc _chufaweishubudao0
 349 0266 C018     		adds r0, r0, r3
 350 0268 641A     		subs r4, r4, r1
 351              	_chufaweishubudao0:
 352 026a 5B08     		lsrs r3, r3, # 1
 353 026c F7D1     		bne _chufaxunhuan
 354              	_chufafanhui:
 355 026e 1EBD     		pop {r1-r4,pc}
 356 0270 00200240 		.ltorg
 356      00100240 
 356      08000200 
 356      00000100 
 356      01000000 
 357              	
 358              	
 359              		
 360              	_nmi_handler:
 361 0338 7047     		bx lr
 362              	_hard_fault:
 363 033a 7047     		bx lr
 364              	_svc_handler:
 365 033c 7047     		bx lr
 366              	_pendsv_handler:
 367 033e 7047     		bx lr
 368              	_systickzhongduan:
 369              	
 370              	aaa:
 371 0340 7047     		bx lr
 372              		.ltorg
 373              		
 374 0342 C046C046 		.align 4
 374      C046C046 
 374      C046C046 
 374      C046
 375              		.equ shumaguanma,		0x20000ffc
 376              		.equ danwei,			0x20000ff8
 377              		.equ dianyabiao,		0x20000100
 378              		.equ STACKINIT,			0x200000f0
 379              	yjmwxwx:
 380 0350 796A6D77 		.ascii "yjmwxwx-20230516"
 380      7877782D 
 380      32303233 
 380      30353136 
 381              		.align 4
 382              	zheng_xian_1khz:
 383 0360 7D808488 		.byte 125,128,132,136,140,144,148,152,155,159,163,167,170,174,178,181,184,188,191,194,198,201,204,
 383      8C909498 
 383      9B9FA3A7 
 383      AAAEB2B5 
 383      B8BCBFC2 
 384              		
 385 0428 C046C046 		.align 4
ARM GAS  1.s 			page 8


 385      C046C046 
 386              	shumaguanmabiao:
 387 0430 C0F9A4B0 		.byte 0xc0,0xf9,0xa4,0xb0,0x99,0x92,0x82,0xf8,0x80,0x90
 387      999282F8 
 387      8090
 388              	shumaguanshuaxinbiao:
 389 043a 10080402 		.byte 0x10,0x08,0x04,0x02
 389      C046
ARM GAS  1.s 			page 9


DEFINED SYMBOLS
                 1.s:9      .text:00000000 vectors
                            *ABS*:200000f0 STACKINIT
                 1.s:59     .text:000000c0 _start
                 1.s:360    .text:00000338 _nmi_handler
                 1.s:362    .text:0000033a _hard_fault
                 1.s:364    .text:0000033c _svc_handler
                 1.s:366    .text:0000033e _pendsv_handler
                 1.s:368    .text:00000340 _systickzhongduan
                 1.s:370    .text:00000340 aaa
                 1.s:61     .text:000000c0 shizhong
                            .text:00000000 $d
                 1.s:62     .text:000000c0 $t
                 1.s:72     .text:000000d4 denghse
                 1.s:84     .text:000000e6 dengpll
                 1.s:91     .text:000000f0 _neicunqingling
                 1.s:95     .text:000000f6 _neicunqinglingxunhuan
                 1.s:101    .text:000000fe __wai_she_shi_zhong
                 1.s:125    .text:00000112 __io_she_zhi
                 1.s:382    .text:00000360 zheng_xian_1khz
                 1.s:203    .text:00000176 _adcchushihua
                 1.s:207    .text:0000017c _dengadcjiaozhun
                 1.s:211    .text:00000182 _tongdaoxuanze
                 1.s:223    .text:00000194 spi_chushihua
                 1.s:229    .text:0000019e ting
                 1.s:241    .text:000001b6 __jishu
                 1.s:256    .text:000001ce _zhuanshumaguanma
                 1.s:288    .text:00000206 _xieshumaguan
                 1.s:311    .text:0000022c __xie_spi
                 1.s:252    .text:000001ca __jisuan_fanhui
                            *ABS*:20000ffc shumaguanma
                 1.s:386    .text:00000430 shumaguanmabiao
                 1.s:268    .text:000001e2 _xunhuanqiuma
                 1.s:332    .text:0000024a _chufa
                 1.s:277    .text:000001f4 __tian_jia_xiao_shu_dian
                 1.s:279    .text:000001f6 __bao_cun_shu_ma_guan_ma
                            *ABS*:20000ff8 danwei
                 1.s:388    .text:0000043a shumaguanshuaxinbiao
                 1.s:296    .text:00000214 _shumaguanshuaxin
                 1.s:314    .text:00000230 __spi_mang
                 1.s:324    .text:00000240 __pa4_yanshi
                 1.s:354    .text:0000026e _chufafanhui
                 1.s:344    .text:0000025e _chufaxunhuan
                 1.s:351    .text:0000026a _chufaweishubudao0
                 1.s:356    .text:00000270 $d
                 1.s:361    .text:00000338 $t
                 1.s:377    *ABS*:20000100 dianyabiao
                 1.s:379    .text:00000350 yjmwxwx
                 1.s:380    .text:00000350 $d
                 1.s:383    .text:00000360 $d
                 1.s:385    .text:00000428 $t
                 1.s:387    .text:00000430 $d
                 1.s:389    .text:0000043e $t

NO UNDEFINED SYMBOLS
